ccopy_reg
_reconstructor
p0
(csklearn.preprocessing.data
StandardScaler
p1
cdill.dill
_load_type
p2
(S'ObjectType'
p3
tp4
Rp5
Ntp6
Rp7
(dp8
S'std_'
p9
cnumpy.core.multiarray
_reconstruct
p10
(cnumpy
ndarray
p11
(I0
tp12
S'b'
p13
tp14
Rp15
(I1
(I5
tp16
cnumpy
dtype
p17
(S'f8'
p18
I0
I1
tp19
Rp20
(I3
S'<'
p21
NNNI-1
I-1
I0
tp22
bI00
S'\xf7#vbH$,A\xfd\xa6\xc6\x15\xaa1\xb4?\x8a\xca\x08F\xfd\xaf\x9c?\x86\x10\x81\xfb\xb0\x04$?\x0f\x80\xae\xa2#\xe1\x83>'
p23
tp24
bsS'copy'
p25
I01
sS'with_mean'
p26
I01
sS'with_std'
p27
I01
sS'mean_'
p28
g10
(g11
(I0
tp29
g13
tp30
Rp31
(I1
(I5
tp32
g20
I00
S'i\xd3\xf1\x89\x07\x1a\xd7AU\x1bVkp\r"@IW OG\xd1\xec?\xa8\ni\x06\x15Ui\xbfII\x84oA\xda\xd0>'
p33
tp34
bsb.