(dp0
S'cs137'
p1
(dp2
F1.054
(dp3
S's2_mean_unc'
p4
F1105.0963295810507
sS's2_mean_value'
p5
F581826.9900168156
sS's1_mean_unc'
p6
F5.270664169659085
sS's1_mean_value'
p7
F2105.217936667382
ssF2.356
(dp8
g4
F1003.8698624179233
sg5
F611730.4204746424
sg6
F4.747105448765296
sg7
F1848.8156010999787
ssF0.345
(dp9
g4
F1185.164447894611
sg5
F541219.0833536952
sg6
F5.982261016828488
sg7
F2466.454144907487
sssS'na22'
p10
(dp11
F1.054
(dp12
g4
F1106.6130212696444
sg5
F433132.88447172835
sg6
F5.591466256768285
sg7
F1673.3426171959206
ssF2.356
(dp13
g4
F1065.4724671200674
sg5
F461280.0720429276
sg6
F5.357929556879412
sg7
F1471.1557881741587
ssF0.345
(dp14
g4
F1148.7770866110804
sg5
F394598.04585727234
sg6
F6.088490075226218
sg7
F1950.9026723380273
sss.