(dp0
S'na_res'
p1
(dp2
S'm_one_sig'
p3
cnumpy.core.multiarray
scalar
p4
(cnumpy
dtype
p5
(S'f8'
p6
I0
I1
tp7
Rp8
(I3
S'<'
p9
NNNI-1
I-1
I0
tp10
bS'@2\x80SdN\xd9?'
p11
tp12
Rp13
sS'median'
p14
g4
(g8
S'\xdf\xc6s@\xfcd+@'
p15
tp16
Rp17
sS'p_one_sig'
p18
g4
(g8
S'@i`+fs\xd9?'
p19
tp20
Rp21
ssS'g1'
p22
(dp23
g3
g4
(g8
S'\x00\xba\xf3\xc9\x0f\xf3:?'
p24
tp25
Rp26
sg14
g4
(g8
S':\xa02\xec\x88\xed\xbd?'
p27
tp28
Rp29
sg18
g4
(g8
S'\x00Xg\xb0tY;?'
p30
tp31
Rp32
ssS'cs_res'
p33
(dp34
g3
g4
(g8
S'@2\x80SdN\xd9?'
p35
tp36
Rp37
sg14
g4
(g8
S'\xdf\xc6s@\xfcd+@'
p38
tp39
Rp40
sg18
g4
(g8
S'@i`+fs\xd9?'
p41
tp42
Rp43
ssS'eta'
p44
(dp45
g3
g4
(g8
S'`8R\x8d\xeam\x96?'
p46
tp47
Rp48
sg14
g4
(g8
S'\xc6sb\x96\xa3\xbb\xec?'
p49
tp50
Rp51
sg18
g4
(g8
S'\xc0\xb4I>\t\xef\x97?'
p52
tp53
Rp54
ssS'w'
p55
(dp56
g3
g4
(g8
S'@2\x80SdN\xd9?'
p57
tp58
Rp59
sg14
g4
(g8
S'\xdf\xc6s@\xfcd+@'
p60
tp61
Rp62
sg18
g4
(g8
S'@i`+fs\xd9?'
p63
tp64
Rp65
ssS'gas_gain'
p66
(dp67
g3
g4
(g8
S'\x80|\x1eX\xba4\xe1?'
p68
tp69
Rp70
sg14
g4
(g8
S'vJ\xd8g"H5@'
p71
tp72
Rp73
sg18
g4
(g8
S'\x80\xaf#\xa7\xd7\xea\xe0?'
p74
tp75
Rp76
ss.