(dp0
S'cs137'
p1
(dp2
F1.054
(dp3
S's2_mean_unc'
p4
F1230.475290283095
sS's2_mean_value'
p5
F625329.9192971734
sS's1_mean_unc'
p6
F5.87809658926335
sS's1_mean_value'
p7
F2277.9238970717647
ssF2.356
(dp8
g4
F1162.4187627419597
sg5
F653351.2668737946
sg6
F5.21628345692784
sg7
F2008.9699008988205
ssF0.345
(dp9
g4
F1254.7730584274395
sg5
F578206.3973793478
sg6
F6.8072713447111255
sg7
F2673.3620332718974
sssS'na22'
p10
(dp11
F1.054
(dp12
g4
F1204.6162269455963
sg5
F463362.94215249066
sg6
F6.307582967244457
sg7
F1814.6470528605187
ssF2.356
(dp13
g4
F1199.423795951152
sg5
F496189.1727283336
sg6
F6.01859228676085
sg7
F1593.4112128109139
ssF0.345
(dp14
g4
F1266.5086433051038
sg5
F417524.7195880528
sg6
F6.563299885441438
sg7
F2137.588174882855
sss.