ccopy_reg
_reconstructor
p0
(csklearn.preprocessing.data
StandardScaler
p1
cdill.dill
_load_type
p2
(S'ObjectType'
p3
tp4
Rp5
Ntp6
Rp7
(dp8
S'std_'
p9
cnumpy.core.multiarray
_reconstruct
p10
(cnumpy
ndarray
p11
(I0
tp12
S'b'
p13
tp14
Rp15
(I1
(I2
tp16
cnumpy
dtype
p17
(S'f8'
p18
I0
I1
tp19
Rp20
(I3
S'<'
p21
NNNI-1
I-1
I0
tp22
bI00
S'\x18h\xc2\x1d\x03\xe3\x90?\x1b\x1c\xd5/\xcc\xce\xd7?'
p23
tp24
bsS'copy'
p25
I01
sS'with_mean'
p26
I01
sS'with_std'
p27
I01
sS'mean_'
p28
g10
(g11
(I0
tp29
g13
tp30
Rp31
(I1
(I2
tp32
g20
I00
S'\xa2\xcf\x02\xea\xd30\xef?\xa0koB\x8e\x875@'
p33
tp34
bsb.