ccopy_reg
_reconstructor
p0
(csklearn.preprocessing.data
StandardScaler
p1
cdill.dill
_load_type
p2
(S'ObjectType'
p3
tp4
Rp5
Ntp6
Rp7
(dp8
S'std_'
p9
cnumpy.core.multiarray
_reconstruct
p10
(cnumpy
ndarray
p11
(I0
tp12
S'b'
p13
tp14
Rp15
(I1
(I5
tp16
cnumpy
dtype
p17
(S'f8'
p18
I0
I1
tp19
Rp20
(I3
S'<'
p21
NNNI-1
I-1
I0
tp22
bI00
S'\xbc6\xf9\xfe\xe2),A\xc5j\x86\x8c\x0ep\xa8?\x84\xcbu\xe3\x9f\xa3\x8e?\x85\n\x06\xd9D\x86\x15?\x8esn\xd6T\xb5u>'
p23
tp24
bsS'copy'
p25
I01
sS'with_mean'
p26
I01
sS'with_std'
p27
I01
sS'mean_'
p28
g10
(g11
(I0
tp29
g13
tp30
Rp31
(I1
(I5
tp32
g20
I00
S'\xac\xd2Tb\xa9s\xd7A,w\xe0\xfa=\xd3!@R\xf7\xc4\x90+\\\xef?l\xc7i\x7fK\xd1k\xbfL\xe0\x00\xe7\xac\xeb\xd1>'
p33
tp34
bsb.