(dp0
S'cs137'
p1
(dp2
F1.054
(dp3
S's2_mean_unc'
p4
F1183.922925522318
sS's2_mean_value'
p5
F639369.265942269
sS's1_mean_unc'
p6
F5.782609969506211
sS's1_mean_value'
p7
F2338.1318175567735
ssF2.356
(dp8
g4
F1154.761850787676
sg5
F669600.404638422
sg6
F5.218816598901412
sg7
F2050.6452756993494
ssF0.345
(dp9
g4
F1331.7412253378425
sg5
F596932.3108195037
sg6
F7.034648703792072
sg7
F2738.513008253844
sssS'na22'
p10
(dp11
F1.054
(dp12
g4
F1223.570289728028
sg5
F477084.522308426
sg6
F6.199385767098306
sg7
F1848.2542286669218
ssF2.356
(dp13
g4
F1256.5155299347243
sg5
F507976.80335149297
sg6
F6.616105744063475
sg7
F1626.5642946662622
ssF0.345
(dp14
g4
F1278.2354024132947
sg5
F433765.02979974484
sg6
F6.804291001130878
sg7
F2170.0102319412663
sss.