(dp0
S'na_res'
p1
(dp2
S'm_one_sig'
p3
cnumpy.core.multiarray
scalar
p4
(cnumpy
dtype
p5
(S'f8'
p6
I0
I1
tp7
Rp8
(I3
S'<'
p9
NNNI-1
I-1
I0
tp10
bS' 3\xaaG\xfa\xa9\xd9?'
p11
tp12
Rp13
sS'median'
p14
g4
(g8
S'd\x9d\xc2+\xd7i+@'
p15
tp16
Rp17
sS'p_one_sig'
p18
g4
(g8
S'@y\xd2y\x01\xbf\xd8?'
p19
tp20
Rp21
ssS'g1'
p22
(dp23
g3
g4
(g8
S'\x00\xb6k;\xf8\xe3=?'
p24
tp25
Rp26
sg14
g4
(g8
S'fk4\xba\xc9y\xc0?'
p27
tp28
Rp29
sg18
g4
(g8
S'\x00&\xe6\xc2\xd6\xe5=?'
p30
tp31
Rp32
ssS'cs_res'
p33
(dp34
g3
g4
(g8
S' 3\xaaG\xfa\xa9\xd9?'
p35
tp36
Rp37
sg14
g4
(g8
S'd\x9d\xc2+\xd7i+@'
p38
tp39
Rp40
sg18
g4
(g8
S'@y\xd2y\x01\xbf\xd8?'
p41
tp42
Rp43
ssS'eta'
p44
(dp45
g3
g4
(g8
S'\x80\x81?\xd6\xb4\xa5\x95?'
p46
tp47
Rp48
sg14
g4
(g8
S'\x88\x84\xdf)\n!\xef?'
p49
tp50
Rp51
sg18
g4
(g8
S'`\x94\xf0\xcaG\x7f\x91?'
p52
tp53
Rp54
ssS'w'
p55
(dp56
g3
g4
(g8
S' 3\xaaG\xfa\xa9\xd9?'
p57
tp58
Rp59
sg14
g4
(g8
S'd\x9d\xc2+\xd7i+@'
p60
tp61
Rp62
sg18
g4
(g8
S'@y\xd2y\x01\xbf\xd8?'
p63
tp64
Rp65
ssS'gas_gain'
p66
(dp67
g3
g4
(g8
S'\x80\x18"\xbf]\xa9\xd7?'
p68
tp69
Rp70
sg14
g4
(g8
S'\xb8\x8fP\xcf\xdag5@'
p71
tp72
Rp73
sg18
g4
(g8
S'@3Q\x9f\xea:\xde?'
p74
tp75
Rp76
ss.