ccopy_reg
_reconstructor
p0
(csklearn.preprocessing.data
StandardScaler
p1
cdill.dill
_load_type
p2
(S'ObjectType'
p3
tp4
Rp5
Ntp6
Rp7
(dp8
S'std_'
p9
cnumpy.core.multiarray
_reconstruct
p10
(cnumpy
ndarray
p11
(I0
tp12
S'b'
p13
tp14
Rp15
(I1
(I5
tp16
cnumpy
dtype
p17
(S'f8'
p18
I0
I1
tp19
Rp20
(I3
S'<'
p21
NNNI-1
I-1
I0
tp22
bI00
S"\x7f\xd2\xc2L{\x9a*A\x10\xf6}^\x0f\xd9\xc3?Y6\x8b\x84\xcb\x88\x92?s\xc4\xdc\xff\x96\xa8'?9\x8a A\x83\xd2\x8d>"
p23
tp24
bsS'copy'
p25
I01
sS'with_mean'
p26
I01
sS'with_std'
p27
I01
sS'mean_'
p28
g10
(g11
(I0
tp29
g13
tp30
Rp31
(I1
(I5
tp32
g20
I00
S'?N\x9e\xe2\xc48\xd6A\xac>w\x1fJ\\#@\xbc\xdf\xe2Us\xfe\xe5?wK\xaf\xbb\xd6\xf6\\\xbfD\x08eh\xc6\x9d\xc6>'
p33
tp34
bsb.