(dp0
S'nerix_150902_1328.root'
p1
(dp2
S'S1UB'
p3
F280.0
sS'S1NB'
p4
I10
sS'S2LB'
p5
F20000.0
sS'S2NB'
p6
I10
sS'S1LB'
p7
F150.0
sS'S2UB'
p8
F35000.0
ssS'nerix_150902_1620.root'
p9
(dp10
S'S1UB'
p11
F310.0
sS'S1NB'
p12
I15
sS'S2LB'
p13
F11000.0
sS'S2NB'
p14
I15
sS'S1LB'
p15
F190.0
sS'S2UB'
p16
F16000.0
ssS'nerix_150902_1643.root'
p17
(dp18
S'S1UB'
p19
F450.0
sS'S1NB'
p20
I25
sS'S2LB'
p21
F11000.0
sS'S2NB'
p22
I25
sS'S1LB'
p23
F200.0
sS'S2UB'
p24
F18000.0
ssS'nerix_150902_1446.root'
p25
(dp26
S'S1UB'
p27
F300.0
sS'S1NB'
p28
I25
sS'S2LB'
p29
F10000.0
sS'S2NB'
p30
I25
sS'S1LB'
p31
F150.0
sS'S2UB'
p32
F16000.0
ssS'nerix_150902_1228.root'
p33
(dp34
S'S1UB'
p35
F180.0
sS'S1NB'
p36
I25
sS'S2LB'
p37
F6000.0
sS'S2NB'
p38
I25
sS'S1LB'
p39
F80.0
sS'S2UB'
p40
F11000.0
ssS'nerix_150902_1559.root'
p41
(dp42
S'S1UB'
p43
F250.0
sS'S1NB'
p44
I15
sS'S2LB'
p45
F8000.0
sS'S2NB'
p46
I15
sS'S1LB'
p47
F140.0
sS'S2UB'
p48
F14000.0
ssS'nerix_150904_1151.root'
p49
(dp50
S'S1UB'
p51
F480.0
sS'S1NB'
p52
I15
sS'S2LB'
p53
F11000.0
sS'S2NB'
p54
I15
sS'S1LB'
p55
F275.0
sS'S2UB'
p56
F17000.0
ssS'nerix_150902_1537.root'
p57
(dp58
S'S1UB'
p59
F220.0
sS'S1NB'
p60
I20
sS'S2LB'
p61
F8000.0
sS'S2NB'
p62
I20
sS'S1LB'
p63
F110.0
sS'S2UB'
p64
F13000.0
ssS'nerix_150902_1512.root'
p65
(dp66
S'S1UB'
p67
F140.0
sS'S1NB'
p68
I25
sS'S2LB'
p69
F5500.0
sS'S2NB'
p70
I25
sS'S1LB'
p71
F50.0
sS'S2UB'
p72
F10000.0
ss.