(dp0
S'na_res'
p1
(dp2
S'm_one_sig'
p3
cnumpy.core.multiarray
scalar
p4
(cnumpy
dtype
p5
(S'f8'
p6
I0
I1
tp7
Rp8
(I3
S'<'
p9
NNNI-1
I-1
I0
tp10
bS' v\xccn\x9d*\xd9?'
p11
tp12
Rp13
sS'median'
p14
g4
(g8
S'*D3\x92\xaac+@'
p15
tp16
Rp17
sS'p_one_sig'
p18
g4
(g8
S'\xc0TE1r\xb2\xd9?'
p19
tp20
Rp21
ssS'g1'
p22
(dp23
g3
g4
(g8
S'\x00(l=v\xe3;?'
p24
tp25
Rp26
sg14
g4
(g8
S'\x17(\xaf\xc2\x9f\xce\xc0?'
p27
tp28
Rp29
sg18
g4
(g8
S'\x00\xeaG2i\xf1<?'
p30
tp31
Rp32
ssS'cs_res'
p33
(dp34
g3
g4
(g8
S' v\xccn\x9d*\xd9?'
p35
tp36
Rp37
sg14
g4
(g8
S'*D3\x92\xaac+@'
p38
tp39
Rp40
sg18
g4
(g8
S'\xc0TE1r\xb2\xd9?'
p41
tp42
Rp43
ssS'eta'
p44
(dp45
g3
g4
(g8
S'\xa0{\x95B\\\x10\x93?'
p46
tp47
Rp48
sg14
g4
(g8
S'\x9b\xfe\xe5\x18%e\xef?'
p49
tp50
Rp51
sg18
g4
(g8
S'\x00\xf8\xd7\x87X\xf1\x8a?'
p52
tp53
Rp54
ssS'w'
p55
(dp56
g3
g4
(g8
S' v\xccn\x9d*\xd9?'
p57
tp58
Rp59
sg14
g4
(g8
S'*D3\x92\xaac+@'
p60
tp61
Rp62
sg18
g4
(g8
S'\xc0TE1r\xb2\xd9?'
p63
tp64
Rp65
ssS'gas_gain'
p66
(dp67
g3
g4
(g8
S'@g\xdd*5\x1c\xd2?'
p68
tp69
Rp70
sg14
g4
(g8
S'N\x0f\xb7\xcd\xc7\x935@'
p71
tp72
Rp73
sg18
g4
(g8
S'\x80<31T\xab\xda?'
p74
tp75
Rp76
ss.