ccopy_reg
_reconstructor
p0
(csklearn.preprocessing.data
StandardScaler
p1
cdill.dill
_load_type
p2
(S'ObjectType'
p3
tp4
Rp5
Ntp6
Rp7
(dp8
S'mean_'
p9
cnumpy.core.multiarray
_reconstruct
p10
(cnumpy
ndarray
p11
(I0
tp12
S'b'
p13
tp14
Rp15
(I1
(I2
tp16
cnumpy
dtype
p17
(S'f8'
p18
I0
I1
tp19
Rp20
(I3
S'<'
p21
NNNI-1
I-1
I0
tp22
bI00
S'\xb4\xe9\x0f\x03cs\xed?\x17\xcf\xdb\x96\xe1\xdf6@'
p23
tp24
bsS'with_mean'
p25
I01
sS'var_'
p26
g10
(g11
(I0
tp27
g13
tp28
Rp29
(I1
(I2
tp30
g20
I00
S'_\xf1P\xd5\x02\xec@?\x86\x13\x7f\x90\xb0D\xd4?'
p31
tp32
bsS'scale_'
p33
g10
(g11
(I0
tp34
g13
tp35
Rp36
(I1
(I2
tp37
g20
I00
S'R\x88\x80\xaa*E\x97?\xba\xb7\xacv\x15\x02\xe2?'
p38
tp39
bsS'with_std'
p40
I01
sS'n_samples_seen_'
p41
I3200
sS'_sklearn_version'
p42
S'0.18.1'
p43
sS'copy'
p44
I01
sb.