ccopy_reg
_reconstructor
p0
(csklearn.preprocessing.data
StandardScaler
p1
cdill.dill
_load_type
p2
(S'ObjectType'
p3
tp4
Rp5
Ntp6
Rp7
(dp8
S'mean_'
p9
cnumpy.core.multiarray
_reconstruct
p10
(cnumpy
ndarray
p11
(I0
tp12
S'b'
p13
tp14
Rp15
(I1
(I2
tp16
cnumpy
dtype
p17
(S'f8'
p18
I0
I1
tp19
Rp20
(I3
S'<'
p21
NNNI-1
I-1
I0
tp22
bI00
S'\x8c\xd0^*1\x10\xec?\x9b*u\xe7\xc8\xe06@'
p23
tp24
bsS'with_mean'
p25
I01
sS'var_'
p26
g10
(g11
(I0
tp27
g13
tp28
Rp29
(I1
(I2
tp30
g20
I00
S',\x1dE\xf3\xdd\xcd6?\xbfZQ\x88)\xe3\xcd?'
p31
tp32
bsS'scale_'
p33
g10
(g11
(I0
tp34
g13
tp35
Rp36
(I1
(I2
tp37
g20
I00
S'\x14\xefC\xd9\xfa\x19\x93?\xc4\x84=\xd1\xf6\xec\xde?'
p38
tp39
bsS'with_std'
p40
I01
sS'n_samples_seen_'
p41
I3200
sS'_sklearn_version'
p42
S'0.18.1'
p43
sS'copy'
p44
I01
sb.