(dp0
I15
(dp1
I1441378080
(dp2
I17
(dp3
S'bkg_width_err'
p4
F3562.627885114751
sS'spe_width'
p5
F934099.7824070359
sS'bkg_width'
p6
F166733.63424886038
sS'chi2'
p7
F36.131459045072546
sS'bkg_mean_err'
p8
F2010.4085612485676
sS'mean_pe'
p9
F0.04943
sS'spe_mean_err'
p10
F46496.255080614515
sS'ndf'
p11
I27
sS'spe_width_err'
p12
F59976.594162565016
sS'bkg_mean'
p13
F293180.68045739434
sS'spe_mean'
p14
F1415999.074034384
sssI1443457920
(dp15
I1
(dp16
S'bkg_width_err'
p17
F925.5229132364766
sS'spe_width'
p18
F857545.6478127023
sS'bkg_width'
p19
F68115.02219592045
sS'chi2'
p20
F63.15128413380141
sS'bkg_mean_err'
p21
F780.2675175102133
sS'mean_pe'
p22
F0.081385
sS'spe_mean_err'
p23
F16248.176368254784
sS'ndf'
p24
I28
sS'spe_width_err'
p25
F33966.46582867473
sS'bkg_mean'
p26
F79223.94432206756
sS'spe_mean'
p27
F1185959.9792442794
ssI2
(dp28
g17
F385.88198150374956
sg18
F554445.4819718096
sg19
F58021.694409483825
sg20
F775.6393485031897
sg21
F418.1272426671325
sg22
F0.066905
sg23
F5015.43402368856
sg24
I57
sg25
F3975.954528939503
sg26
F69601.34946970573
sg27
F1195918.776940826
ssI3
(dp29
g17
F1287.6782902085324
sg18
F758848.0776887124
sg19
F86885.80193989417
sg20
F37.27331042047811
sg21
F1031.0713173361037
sg22
F0.10733
sg23
F13808.313244249826
sg24
I27
sg25
F23939.320503762166
sg26
F104351.54755116238
sg27
F1262584.5391734065
ssI4
(dp30
g17
F296.15591207130274
sg18
F577876.6917123478
sg19
F61676.251164305635
sg20
F1084.5199427129078
sg21
F403.9035492728233
sg22
F0.079715
sg23
F4836.857621001056
sg24
I54
sg25
F4008.81358782982
sg26
F68607.6595721867
sg27
F1238292.136776605
ssI5
(dp31
g17
F404.0420782753572
sg18
F911261.2516161713
sg19
F59113.276121066665
sg20
F5764.948711923192
sg21
F433.18707193432516
sg22
F0.072385
sg23
F8525.106652110366
sg24
I74
sg25
F7923.569350957521
sg26
F64006.08951529601
sg27
F1536678.4008766147
ssI6
(dp32
g17
F452.4489636022008
sg18
F855044.989389101
sg19
F62472.86952367874
sg20
F3145.33609007817
sg21
F460.06412978747943
sg22
F0.04157
sg23
F10225.232283041034
sg24
I74
sg25
F9036.920883563755
sg26
F82395.00221948954
sg27
F1427413.9330113397
ssI7
(dp33
g17
F489.67435752620804
sg18
F788095.773500656
sg19
F85996.59627277585
sg20
F1563.5540019571615
sg21
F613.1800650002509
sg22
F0.045645
sg23
F7699.514743485008
sg24
I82
sg25
F6098.002343068598
sg26
F122311.08040846487
sg27
F1467999.0784783817
ssI8
(dp34
g17
F2312.348007782515
sg18
F804801.3984831872
sg19
F72188.84471692798
sg20
F26.419668535080408
sg21
F1376.1894670529853
sg22
F0.043705
sg23
F48294.19835747618
sg24
I21
sg25
F71617.86410250474
sg26
F91174.95738154514
sg27
F1160050.4214299538
ssI9
(dp35
g17
F385.0192216184587
sg18
F846280.7533824599
sg19
F69619.03503652204
sg20
F16675.093530356542
sg21
F470.63956940220663
sg22
F0.08813
sg23
F6579.096273216108
sg24
I81
sg25
F5433.8617281470215
sg26
F77975.87602797404
sg27
F1363699.3573010499
ssI10
(dp36
g17
F304.7692554987152
sg18
F810471.2879800086
sg19
F61441.61496563203
sg20
F3676.830542638654
sg21
F399.84282747590834
sg22
F0.0779
sg23
F7273.7377322093225
sg24
I64
sg25
F6883.1243024914875
sg26
F72431.99652545771
sg27
F1360347.5759504258
ssI11
(dp37
g17
F654.3284738959919
sg18
F872592.0686690207
sg19
F59198.799887255576
sg20
F38.73166333224971
sg21
F653.2535872482661
sg22
F0.087965
sg23
F16619.349113018317
sg24
I30
sg25
F33245.075736590254
sg26
F74408.54939244276
sg27
F1486034.8194414899
ssI12
(dp38
g17
F1483.5186287113938
sg18
F990877.237251709
sg19
F63198.595233756976
sg20
F34.410865220112555
sg21
F789.0502955874149
sg22
F0.09123
sg23
F35415.09996239164
sg24
I26
sg25
F58507.595093745156
sg26
F80909.39965589966
sg27
F1326416.5377522877
ssI13
(dp39
g17
F1723.4300514082352
sg18
F838638.6454305316
sg19
F85412.36782824702
sg20
F44.87632995354343
sg21
F1021.8890901584771
sg22
F0.075315
sg23
F13653.838554514141
sg24
I31
sg25
F25734.566773633356
sg26
F139806.54821493404
sg27
F1237273.265241821
ssI14
(dp40
g17
F476.73755839561636
sg18
F781562.9365452175
sg19
F95486.34244968901
sg20
F1045.766890569007
sg21
F626.7644661154116
sg22
F0.06598
sg23
F7422.2432017285155
sg24
I71
sg25
F6320.109586616338
sg26
F128136.16916512871
sg27
F1473553.088650438
ssI15
(dp41
g17
F1121.7860441028097
sg18
F793026.0920111131
sg19
F106900.15904329435
sg20
F29.13001496393108
sg21
F1017.3232027603142
sg22
F0.07182
sg23
F31278.841144718022
sg24
I20
sg25
F52722.52784533228
sg26
F146468.30445196223
sg27
F1379402.2950508539
ssI16
(dp42
g17
F562.0972611059478
sg18
F846965.0071362435
sg19
F84042.67749456748
sg20
F2185.5832959690656
sg21
F600.0270762684595
sg22
F0.067625
sg23
F7963.859485288125
sg24
I72
sg25
F7130.036082686798
sg26
F107432.34124130347
sg27
F1515453.5408308948
ssI17
(dp43
g17
F3642.633234698049
sg18
F688060.978480587
sg19
F168097.15595369128
sg20
F106.44652589522188
sg21
F1954.5874954614276
sg22
F0.04209
sg23
F11515.814383753705
sg24
I40
sg25
F12987.541338494979
sg26
F284586.2079452509
sg27
F1503557.8672761
sssI1446039000
(dp44
I1
(dp45
S'chi2'
p46
F12.849268558847491
sS'mean_pe'
p47
F0.07245
sS'spe_width_err'
p48
F18601.350498589803
sS'bkg_mean'
p49
F76845.68364196955
sS'spe_mean'
p50
F1254337.4755039993
sS'bkg_width_err'
p51
F1457.4873612303236
sS'spe_width'
p52
F609914.343778721
sS'bkg_width'
p53
F62711.410561037424
sS'spe_mean_err'
p54
F12389.897109238535
sS'ndf'
p55
I24
sS'bkg_mean_err'
p56
F742.5062419003096
ssI2
(dp57
g46
F34.44988649108656
sg47
F0.05743
sg48
F17076.46856202191
sg49
F69604.36643643402
sg50
F1124590.7318197677
sg51
F1228.516821527628
sg52
F569626.2944562879
sg53
F59697.81263231172
sg54
F10274.012264018973
sg55
I23
sg56
F687.8211364165321
ssI3
(dp58
g46
F29.373081151809846
sg47
F0.07895
sg48
F14128.407166046381
sg49
F81834.76865387248
sg50
F1287481.559233186
sg51
F1646.0281523409903
sg52
F632954.0384009116
sg53
F64549.776617414536
sg54
F9579.899703107318
sg55
I28
sg56
F868.7326596516758
ssI4
(dp59
g46
F28.119216403102104
sg47
F0.06737
sg48
F13633.28064511274
sg49
F71443.8351528069
sg50
F1181298.93543411
sg51
F1345.630963191863
sg52
F590434.4993922833
sg53
F61067.02053701493
sg54
F8916.265237398255
sg55
I26
sg56
F715.6194399900053
ssI5
(dp60
g46
F35.99791742520081
sg47
F0.063705
sg48
F30229.806068211794
sg49
F52939.88873237285
sg50
F1446037.09893804
sg51
F3309.530385405378
sg52
F897807.2983117381
sg53
F27266.351015486674
sg54
F20382.677373182978
sg55
I35
sg56
F758.3556562008552
ssI6
(dp61
g46
F31.39421834097505
sg47
F0.03822
sg48
F36869.24194791494
sg49
F78545.25376401274
sg50
F1437277.622962305
sg51
F1460.141649042409
sg52
F855104.2840697146
sg53
F62800.70472351618
sg54
F24912.80257325862
sg55
I34
sg56
F754.3177660356612
ssI7
(dp62
g46
F36.95103580530234
sg47
F0.049195
sg48
F24105.09188553033
sg49
F92782.5777650397
sg50
F1314100.3077662876
sg51
F1065.669883953291
sg52
F889394.9445539911
sg53
F73766.03749198877
sg54
F15504.17653463813
sg55
I40
sg56
F714.5197794949472
ssI8
(dp63
g46
F16.864223487815977
sg47
F0.037765
sg48
F34654.05344646162
sg49
F89056.64582502864
sg50
F1166559.9461394278
sg51
F2419.038331625714
sg52
F742607.2680904825
sg53
F73601.49309559955
sg54
F21201.355676228286
sg55
I27
sg56
F1320.9874405365908
ssI9
(dp64
g46
F17.427623464432784
sg47
F0.081165
sg48
F30346.328119688085
sg49
F82612.52741213795
sg50
F1244631.185640257
sg51
F2030.5170647703999
sg52
F817447.7180345918
sg53
F68649.92141585932
sg54
F22637.126697929627
sg55
I29
sg56
F1014.2629841343993
ssI10
(dp65
g46
F30.07800851048978
sg47
F0.06152
sg48
F19069.877881012915
sg49
F78950.16513203194
sg50
F1325438.527336835
sg51
F1097.8342034480447
sg52
F720516.520338973
sg53
F57302.80079680792
sg54
F12937.27110413071
sg55
I31
sg56
F631.861961571356
ssI11
(dp66
g46
F24.04823536382657
sg47
F0.074695
sg48
F19401.064899840683
sg49
F73107.71550617911
sg50
F1490377.423963854
sg51
F1319.0396476398055
sg52
F722587.9235287703
sg53
F60535.688547881226
sg54
F13825.244383154399
sg55
I31
sg56
F701.4036840919098
ssI12
(dp67
g46
F32.2507155197317
sg47
F0.07764
sg48
F17032.728772372648
sg49
F80246.31497234594
sg50
F1276059.9107509456
sg51
F1503.700473153618
sg52
F719049.9318983322
sg53
F63544.42622846106
sg54
F10923.443066712667
sg55
I31
sg56
F784.510718316517
ssI13
(dp68
g46
F27.15332637833155
sg47
F0.068625
sg48
F25049.114894358616
sg49
F127556.92190136504
sg50
F1175642.0263609535
sg51
F2488.910665241623
sg52
F707554.6891023635
sg53
F76284.39025569745
sg54
F15025.767714150625
sg55
I25
sg56
F1027.584876799561
ssI14
(dp69
g46
F36.37001475168595
sg47
F0.059135
sg48
F32651.06375689467
sg49
F98562.7360159197
sg50
F1249587.1890473228
sg51
F1006.913142147001
sg52
F842991.4684967616
sg53
F71086.02600085601
sg54
F21794.35205132065
sg55
I31
sg56
F685.2055220413374
ssI15
(dp70
g46
F35.18149415433114
sg47
F0.077175
sg48
F18747.618857518188
sg49
F117401.2032529644
sg50
F1378703.1687402034
sg51
F2247.0788403714614
sg52
F788713.0833115177
sg53
F72242.95409585662
sg54
F12827.513302918489
sg55
I34
sg56
F1061.3487496218697
ssI16
(dp71
g46
F33.79205417897423
sg47
F0.05807
sg48
F27861.983267847158
sg49
F103640.6833484838
sg50
F1530193.4570539345
sg51
F1526.753168820389
sg52
F840562.5587155849
sg53
F81619.51879857294
sg54
F19331.25703308364
sg55
I34
sg56
F899.5236017109763
ssI17
(dp72
g46
F27.768240500537335
sg47
F0.036835
sg48
F29630.53052085149
sg49
F513077.91279853525
sg50
F1526300.442280078
sg51
F6886.958580494247
sg52
F785107.0421084808
sg53
F340488.2998067663
sg54
F20786.090430527987
sg55
I33
sg56
F4155.399638770603
sssI1441804680
(dp73
I1
(dp74
S'bkg_width_err'
p75
F426.8882784790767
sS'spe_width'
p76
F659564.5552609949
sS'bkg_width'
p77
F82816.11159128443
sS'chi2'
p78
F1222.9286556077552
sS'bkg_mean'
p79
F114719.50166336642
sS'mean_pe'
p80
F0.089555
sS'spe_width_err'
p81
F4516.531905847078
sS'ndf'
p82
I60
sS'spe_mean_err'
p83
F5336.6337105355715
sS'bkg_mean_err'
p84
F545.4634453560408
sS'spe_mean'
p85
F1292665.8357397595
ssI2
(dp86
g75
F285.06626433560086
sg76
F570636.8064537412
sg77
F58205.81829881963
sg78
F1823.0430146935844
sg79
F71378.95888612526
sg80
F0.07617
sg81
F3905.257308185566
sg82
I57
sg83
F4872.481170790783
sg84
F382.44766529701764
sg85
F1205409.2847930042
ssI3
(dp87
g75
F686.663424065242
sg76
F728880.5432289968
sg77
F118202.9852469499
sg78
F700.1050040329445
sg79
F144928.52168325678
sg80
F0.096565
sg81
F5265.9511501579545
sg82
I60
sg83
F5804.021461788117
sg84
F843.5699140304839
sg85
F1306294.4478820388
ssI4
(dp88
g75
F284.75796749719666
sg76
F607121.3290761233
sg77
F60847.45413667238
sg78
F1765.9196635135847
sg79
F72247.29028726037
sg80
F0.090855
sg81
F4026.1945494115935
sg82
I55
sg83
F4760.346104487536
sg84
F399.3715895636599
sg85
F1280024.1805744544
ssI5
(dp89
g75
F297.9177595733818
sg76
F899477.8154637842
sg77
F62406.305739753705
sg78
F8734.042586682317
sg79
F64820.25366680065
sg80
F0.08157
sg81
F7046.330425889115
sg82
I76
sg83
F7823.879287085508
sg84
F405.9772398662158
sg85
F1537241.4084413992
ssI6
(dp90
g75
F381.71088933908686
sg76
F921829.6012816904
sg77
F63646.92416273446
sg78
F12555.556072856136
sg79
F80960.90570805893
sg80
F0.050515
sg81
F9895.401087709819
sg82
I73
sg83
F10435.089678111519
sg84
F447.18894584852256
sg85
F1326719.7337736543
ssI7
(dp91
g75
F441.3259095900503
sg76
F809403.9948660949
sg77
F68754.4792295035
sg78
F2357.3067927546936
sg79
F60731.761396475275
sg80
F0.06505
sg81
F6203.646480814554
sg82
I78
sg83
F7547.758867884962
sg84
F486.02055658612994
sg85
F1514902.4844604933
ssI8
(dp92
g75
F1072.304645749049
sg76
F736663.9197250556
sg77
F72358.12833790733
sg78
F70.45173584404476
sg79
F92765.59782018715
sg80
F0.04989
sg81
F15415.671647897863
sg82
I39
sg83
F13818.07664066777
sg84
F734.6192657481961
sg85
F1203916.1647195644
ssI9
(dp93
g75
F856.0865329874869
sg76
F1080492.0261793267
sg77
F66748.81788054502
sg78
F21.27459706285838
sg79
F91598.28468902448
sg80
F0.105775
sg81
F73689.85068862425
sg82
I27
sg83
F72550.60887350404
sg84
F643.4477541876638
sg85
F1220817.3567113995
ssI10
(dp94
g75
F296.0039146452473
sg76
F775443.4645319142
sg77
F63237.511911878435
sg78
F1357.3842216785863
sg79
F76307.08101675916
sg80
F0.082845
sg81
F5775.04008061043
sg82
I67
sg83
F6552.648439462334
sg84
F413.30130607910223
sg85
F1537649.1306141973
ssI11
(dp95
g75
F1065.020838663364
sg76
F802121.6280863377
sg77
F56642.69965405455
sg78
F42.37484142351088
sg79
F74100.25606240617
sg80
F0.10273
sg81
F22727.787196042947
sg82
I31
sg83
F12658.592888819981
sg84
F611.4385086951444
sg85
F1525214.4739663105
ssI12
(dp96
g75
F311.5751306994571
sg76
F787491.990125817
sg77
F66650.01719634792
sg78
F7277.334955174231
sg79
F75661.4735026714
sg80
F0.104625
sg81
F5212.0522860141355
sg82
I69
sg83
F5973.095057739955
sg84
F431.24661650889306
sg85
F1412391.0093701016
ssI13
(dp97
g75
F4083.281698300256
sg76
F846532.8700824999
sg77
F87089.14651391857
sg78
F45.930127688303244
sg79
F131392.76404287366
sg80
F0.08855
sg81
F21993.58637058758
sg82
I33
sg83
F12762.984547124586
sg84
F1534.4312382015696
sg85
F1282620.2896352897
ssI14
(dp98
g75
F801.6824625862937
sg76
F971559.809584209
sg77
F76676.81188120838
sg78
F122.92874403194485
sg79
F108286.85747268746
sg80
F0.07923
sg81
F18615.901942109456
sg82
I47
sg83
F12657.95394009857
sg84
F696.65422670539
sg85
F1301250.4428964923
ssI15
(dp99
g75
F649.8785249021021
sg76
F734243.8713859295
sg77
F115465.77256344877
sg78
F523.8656339878164
sg79
F181975.88488026676
sg80
F0.09837
sg81
F4713.447227458353
sg82
I68
sg83
F5612.7133688081285
sg84
F765.3623873113215
sg85
F1587952.833967541
ssI16
(dp100
g75
F410.6821127948788
sg76
F908944.0107453088
sg77
F86619.2084979652
sg78
F285.37182979228004
sg79
F106893.18243543639
sg80
F0.07408
sg81
F8193.345539529051
sg82
I71
sg83
F8548.441644440092
sg84
F540.4344688245636
sg85
F1532698.79036485
ssI17
(dp101
g75
F3860.0028640847304
sg76
F969672.7201406242
sg77
F171496.00207006137
sg78
F20.78781221012668
sg79
F293535.48921113263
sg80
F0.051545
sg81
F67077.54573270225
sg82
I27
sg83
F44038.304268069645
sg84
F2124.0708642269437
sg85
F1476518.1740752843
sssI1443723180
(dp102
I17
(dp103
S'bkg_width_err'
p104
F3588.1137002399046
sS'spe_width'
p105
F849572.8543368157
sS'bkg_width'
p106
F124842.34239430085
sS'chi2'
p107
F25.15164716399875
sS'bkg_mean'
p108
F189797.14806067545
sS'mean_pe'
p109
F0.14082
sS'spe_width_err'
p110
F27918.707824649056
sS'ndf'
p111
I27
sS'spe_mean_err'
p112
F15608.324840522935
sS'bkg_mean_err'
p113
F1908.8737580345373
sS'spe_mean'
p114
F1399249.1412322146
sssI1442847180
(dp115
I1
(dp116
S'bkg_width_err'
p117
F1998.3069998769424
sS'spe_width'
p118
F895391.4725078127
sS'bkg_width'
p119
F61450.447082362174
sS'chi2'
p120
F5.412322852287481
sS'bkg_mean'
p121
F79113.11089360001
sS'mean_pe'
p122
F0.08875
sS'spe_width_err'
p123
F433375.10859225783
sS'ndf'
p124
I11
sS'spe_mean_err'
p125
F610659.9371573253
sS'bkg_mean_err'
p126
F1066.1521302735252
sS'spe_mean'
p127
F1235925.7161151173
ssI2
(dp128
g117
F522.6153226002716
sg118
F574794.8841401722
sg119
F57086.107130562516
sg120
F663.7483972115588
sg121
F67651.5513484686
sg122
F0.06821
sg123
F5896.7782504432835
sg124
I56
sg125
F7271.294705034672
sg126
F575.2450111422847
sg127
F1166672.109380148
ssI3
(dp129
g117
F1536.4530322266
sg118
F734343.1980177877
sg119
F115092.86999061155
sg120
F12.982446308490314
sg121
F142841.5139224208
sg122
F0.09477
sg123
F132176.3204581518
sg124
I13
sg125
F97151.34285582165
sg126
F1380.2508621265713
sg127
F1141143.2605136016
ssI4
(dp130
g117
F421.0925994240606
sg118
F608954.0669145406
sg119
F59572.623705610895
sg120
F599.2542534913679
sg121
F71824.1746513919
sg122
F0.08368
sg123
F6057.339955282805
sg124
I54
sg125
F7069.373412957776
sg126
F559.9736763553622
sg127
F1259847.5775877794
ssI5
(dp131
g117
F430.873394818067
sg118
F974774.7280299765
sg119
F60485.206182716116
sg120
F1377.6672189961248
sg121
F63800.57597227284
sg122
F0.07355
sg123
F13338.027678023966
sg124
I72
sg125
F13259.253203719407
sg126
F567.6574927831016
sg127
F1492267.9620909416
ssI6
(dp132
g117
F454.1241214181282
sg118
F851062.821844487
sg119
F66359.0117810625
sg120
F812.1561325113095
sg121
F82212.7323441872
sg122
F0.04233
sg123
F12174.982101830828
sg124
I77
sg125
F14232.964487145815
sg126
F605.6783060563218
sg127
F1447530.6366965729
ssI7
(dp133
g117
F613.398414674557
sg118
F796104.8294293435
sg119
F73730.58885509225
sg120
F781.145567066439
sg121
F85650.3048576734
sg122
F0.05288
sg123
F8912.556812934694
sg124
I77
sg125
F10868.619364762042
sg126
F720.6683985847837
sg127
F1469188.637746447
ssI8
(dp134
g117
F1536.4720091428098
sg118
F838846.7082719072
sg119
F72685.7647952306
sg120
F27.397523773397825
sg121
F92228.01646860619
sg122
F0.04851
sg123
F68346.54431164352
sg124
I26
sg125
F30839.00188186431
sg126
F1050.4069648203906
sg127
F1113747.8367493027
ssI9
(dp135
g117
F480.29474620524707
sg118
F825554.8419380445
sg119
F68742.68543972766
sg120
F4154.068550734215
sg121
F84657.62322746517
sg122
F0.09153
sg123
F7268.69011047855
sg124
I82
sg125
F8985.322462695667
sg126
F632.7480848215512
sg127
F1394511.78264456
ssI10
(dp136
g117
F415.6151038999087
sg118
F754143.1907087065
sg119
F64198.02100268906
sg120
F472.28756448488195
sg121
F71909.1321505758
sg122
F0.07235
sg123
F8079.321364729723
sg124
I67
sg125
F9360.151145741249
sg126
F578.999618981654
sg127
F1466489.545584221
ssI11
(dp137
g117
F866.2181220781204
sg118
F782521.7254431458
sg119
F58228.37652403987
sg120
F34.89576482522378
sg121
F77091.6079142987
sg122
F0.09017
sg123
F36307.81590911397
sg124
I29
sg125
F19411.9520961553
sg126
F847.8212287692483
sg127
F1555305.361750621
ssI12
(dp138
g117
F480.9563185683837
sg118
F731054.7956790219
sg119
F65662.31442579822
sg120
F622.9439293473606
sg121
F76344.47796619446
sg122
F0.09104
sg123
F7021.454689926701
sg124
I66
sg125
F8227.446242460048
sg126
F609.6039322061599
sg127
F1434542.7073362467
ssI13
(dp139
g117
F2814.6007873904455
sg118
F807251.6735774325
sg119
F89306.4498939065
sg120
F25.088991056548437
sg121
F141709.86307055454
sg122
F0.08247
sg123
F46109.209436219884
sg124
I26
sg125
F24399.85503547346
sg126
F1553.582070333293
sg127
F1213436.0372716463
ssI16
(dp140
g117
F754.5765560831715
sg118
F853053.8261541952
sg119
F82343.33125324105
sg120
F437.278579750412
sg121
F109035.91012757842
sg122
F0.06838
sg123
F10565.064371603774
sg124
I69
sg125
F11357.00387024217
sg126
F817.6185973149882
sg127
F1464725.7931087252
ssI17
(dp141
g117
F4873.763246193077
sg118
F950641.0074745548
sg119
F164677.17414534045
sg120
F16.89013922272979
sg121
F291889.9998683583
sg122
F0.0472
sg123
F161488.93892775127
sg124
I21
sg125
F119397.46227171583
sg126
F2764.3627754690638
sg127
F1467842.3065113993
sssI1441288080
(dp142
I1
(dp143
S'bkg_width_err'
p144
F451.0346067170467
sS'spe_width'
p145
F709405.9530471634
sS'bkg_width'
p146
F85071.45129337847
sS'chi2'
p147
F4743.063639652514
sS'bkg_mean'
p148
F104736.21024573561
sS'mean_pe'
p149
F0.090805
sS'spe_width_err'
p150
F4687.767573034042
sS'ndf'
p151
I83
sS'spe_mean_err'
p152
F5594.654022712346
sS'bkg_mean_err'
p153
F585.9015602277593
sS'spe_mean'
p154
F1219510.8538396657
ssI2
(dp155
g144
F291.83778992095904
sg145
F559067.8726374024
sg146
F60815.044881005415
sg147
F1190.9920084368755
sg148
F68603.32282630431
sg149
F0.074195
sg150
F3897.0703050769516
sg151
I71
sg152
F4867.62447580631
sg153
F400.478442789127
sg154
F1172491.9785838677
ssI3
(dp156
g144
F377.282230292607
sg145
F703137.5570717958
sg146
F68664.46455740725
sg147
F184.4522792827197
sg148
F81805.90516176468
sg149
F0.097915
sg150
F5590.941213174665
sg151
I67
sg152
F5724.610433012098
sg153
F471.3515258674224
sg154
F1313239.631686408
ssI4
(dp157
g144
F285.01105896004447
sg145
F609088.7625447635
sg146
F59294.510675541904
sg147
F247.51247635183853
sg148
F75177.18151885379
sg149
F0.09248
sg150
F4230.885965657071
sg151
I66
sg152
F4816.047810826624
sg153
F394.0609265480287
sg154
F1257101.435871065
ssI5
(dp158
g144
F287.74212047143374
sg145
F850506.8502204505
sg146
F60586.83667293675
sg147
F2311.954916636073
sg148
F65170.34659786399
sg149
F0.078095
sg150
F8077.495103908121
sg151
I80
sg152
F8245.231156402766
sg153
F394.58187077296975
sg154
F1497796.4705240233
ssI6
(dp159
g144
F343.75590858332725
sg145
F1032475.0837842302
sg146
F62809.19599880828
sg147
F16345.839331722438
sg148
F84916.54286491746
sg149
F0.04724
sg150
F15122.341934701777
sg151
I83
sg152
F13213.940737424064
sg153
F423.57439643449584
sg154
F1216196.856943163
ssI7
(dp160
g144
F314.2582249065963
sg145
F791395.864113972
sg146
F68266.20748310647
sg147
F1987.8251101802277
sg148
F53586.375877569175
sg149
F0.062465
sg150
F6964.93609583925
sg151
I84
sg152
F7812.513267374781
sg153
F436.7951468704114
sg154
F1460112.323146193
ssI8
(dp161
g144
F1759.1153774506165
sg145
F895338.700504573
sg146
F72164.11172232364
sg147
F16.4137048124733
sg148
F93769.67795669685
sg149
F0.049775
sg150
F70648.03656062583
sg151
I30
sg152
F30410.310804145753
sg153
F1087.800519605382
sg154
F1045628.0272221154
ssI9
(dp162
g144
F478.4829937248214
sg145
F872136.4507926623
sg146
F71429.31661031207
sg147
F5244.994740224431
sg148
F81553.88142295516
sg149
F0.098895
sg150
F7221.2735500969575
sg151
I82
sg152
F7335.638302382295
sg153
F537.5972200259268
sg154
F1438329.346738208
ssI10
(dp163
g144
F295.0906410886746
sg145
F790173.1766152178
sg146
F57935.746512218066
sg147
F296.7005674169249
sg148
F78128.31070680202
sg149
F0.081225
sg150
F6878.6665601340355
sg151
I76
sg152
F7083.0052956883565
sg153
F380.932665558007
sg154
F1479766.6724086236
ssI11
(dp164
g144
F1262.4451481145807
sg145
F786738.803204455
sg146
F71074.56870177922
sg147
F34.680712259174506
sg148
F103296.43376223157
sg149
F0.093795
sg150
F24861.90827797656
sg151
I37
sg152
F13258.638329884487
sg153
F891.6736115089901
sg154
F1497885.1824691212
ssI12
(dp165
g144
F431.26190188516193
sg145
F794435.3557852799
sg146
F69891.09965382224
sg147
F6145.043362915864
sg148
F91433.80244407643
sg149
F0.101965
sg150
F5332.145562445512
sg151
I88
sg152
F6156.798874515327
sg153
F493.9924671142029
sg154
F1409912.4383974704
ssI13
(dp166
g144
F733.451843690229
sg145
F691851.5004121179
sg146
F124242.93908776596
sg147
F370.59177883406846
sg148
F172517.29910170287
sg149
F0.08724
sg150
F4612.824689107074
sg151
I82
sg152
F5552.465857694405
sg153
F872.167208216581
sg154
F1343228.9411842164
ssI14
(dp167
g144
F570.1433587391075
sg145
F841620.1063026444
sg146
F87586.42725166402
sg147
F539.2696553957593
sg148
F111175.24673296585
sg149
F0.07225
sg150
F7724.155076339142
sg151
I81
sg152
F7989.647189986808
sg153
F651.4056641157786
sg154
F1445862.1816329672
ssI15
(dp168
g144
F1800.456952304332
sg145
F761885.8262288537
sg146
F230422.68671835258
sg147
F341.23640802062727
sg148
F380647.89432709944
sg149
F0.09593
sg150
F5363.786549828015
sg151
I85
sg152
F6262.8648766372735
sg153
F1846.2723960519413
sg154
F1537114.987344523
ssI16
(dp169
g144
F464.60717207605194
sg145
F1017574.2311333183
sg146
F83246.35844308294
sg147
F120.0011680598949
sg148
F107929.05875761237
sg149
F0.07232
sg150
F15033.373380393721
sg151
I73
sg152
F11777.334289778275
sg153
F550.7692605556759
sg154
F1475593.7189120222
sssI1445869080
(dp170
I1
(dp171
S'bkg_width_err'
p172
F1485.8059878163986
sS'spe_width'
p173
F665987.5089214147
sS'bkg_width'
p174
F63168.968140417055
sS'chi2'
p175
F17.25645778189737
sS'bkg_mean_err'
p176
F770.0989502339309
sS'mean_pe'
p177
F0.07165
sS'spe_mean_err'
p178
F12191.073586085937
sS'ndf'
p179
I27
sS'spe_width_err'
p180
F18894.431770246825
sS'bkg_mean'
p181
F79409.67048721366
sS'spe_mean'
p182
F1244276.6206384646
ssI2
(dp183
g172
F1010.574897143295
sg173
F540628.0486250496
sg174
F56086.60636543942
sg175
F19.061282575664855
sg176
F607.2768805867529
sg177
F0.058265
sg178
F12919.763957331854
sg179
I20
sg180
F19447.98241053059
sg181
F69911.91747320056
sg182
F1158607.4420709566
ssI3
(dp184
g172
F1744.4957981806
sg173
F604734.1322446646
sg174
F84018.62040188524
sg175
F37.37886937827733
sg176
F986.003356333915
sg177
F0.077595
sg178
F10595.373599601964
sg179
I25
sg180
F15595.060266425135
sg181
F99559.40923133995
sg182
F1286200.1310213222
ssI4
(dp185
g172
F1233.9453525619683
sg173
F567210.3953303746
sg174
F59604.013081740784
sg175
F22.05713812255635
sg176
F668.0979295751963
sg177
F0.067735
sg178
F8670.155934675236
sg179
I25
sg180
F13010.127841263253
sg181
F74347.89422938434
sg182
F1192113.9253004324
ssI5
(dp186
g172
F1133.9901552074225
sg173
F826748.1289419376
sg174
F58179.51949761496
sg175
F25.0196884530822
sg176
F671.5983647744132
sg177
F0.064065
sg178
F16333.267707942972
sg179
I35
sg180
F23979.151020052377
sg181
F68548.17681813128
sg182
F1489106.4847346516
ssI6
(dp187
g172
F1517.0576574847546
sg173
F858037.3966533287
sg174
F63697.58378159671
sg175
F54.47382406828783
sg176
F793.5247363563507
sg177
F0.03894
sg178
F24993.030082339083
sg179
I34
sg180
F36998.219397520996
sg181
F80486.51248023905
sg182
F1435537.8159423678
ssI7
(dp188
g172
F1298.9489064090885
sg173
F758391.4664536417
sg174
F77802.08738505797
sg175
F23.50550864369545
sg176
F801.8161446294401
sg177
F0.056755
sg178
F73418.93630846622
sg179
I20
sg180
F68640.67791496671
sg181
F102236.74827110521
sg182
F1366443.8296057822
ssI8
(dp189
g172
F2868.9749367853437
sg173
F736006.1823472492
sg174
F77756.00655108737
sg175
F17.863447644362275
sg176
F1563.6611228486706
sg177
F0.03934
sg178
F19961.377435056704
sg179
I26
sg180
F36551.56540290709
sg181
F90724.70033416098
sg182
F1147447.481493128
ssI9
(dp190
g172
F1940.262965505688
sg173
F861155.0667044583
sg174
F68132.68019568718
sg175
F26.17080240505799
sg176
F913.3922206035393
sg177
F0.07673
sg178
F32366.386839252657
sg179
I27
sg180
F41113.54397613864
sg181
F79456.4539867269
sg182
F1241328.9842186137
ssI10
(dp191
g172
F1125.6350628606851
sg173
F723525.7110007704
sg174
F58010.052328268175
sg175
F28.045408509024945
sg176
F635.9437389633517
sg177
F0.06123
sg178
F15356.719228079726
sg179
I29
sg180
F22416.63168104639
sg181
F78176.77735394418
sg182
F1340707.5351270228
ssI11
(dp192
g172
F1176.5497083855698
sg173
F807065.2507572062
sg174
F58433.040838938345
sg175
F40.676260689773706
sg176
F656.6912583079707
sg177
F0.076145
sg178
F12504.315945525035
sg179
I37
sg180
F18588.61046188802
sg181
F72635.25248942875
sg182
F1410892.5559994369
ssI12
(dp193
g172
F1466.3263011946729
sg173
F709930.3470095531
sg174
F62826.671276942994
sg175
F26.95642732833908
sg176
F768.2326442689795
sg177
F0.07791
sg178
F12018.836178544727
sg179
I30
sg180
F17784.24738330167
sg181
F79920.85415287524
sg182
F1297065.0447710885
ssI13
(dp194
g172
F3012.0467693946775
sg173
F764546.8019636705
sg174
F80013.76314864976
sg175
F22.865580041695065
sg176
F1181.9437823579053
sg177
F0.06589
sg178
F12541.485631728614
sg179
I31
sg180
F20801.62527085078
sg181
F121551.99626773235
sg182
F1177684.3238230355
ssI14
(dp195
g172
F1126.48365316556
sg173
F819990.8620310281
sg174
F73203.41941820743
sg175
F27.23860420431602
sg176
F751.1501604918437
sg177
F0.058005
sg178
F16701.010827245344
sg179
I33
sg180
F26524.74467864167
sg181
F105044.57190111723
sg182
F1273601.4945228356
ssI15
(dp196
g172
F1108.450366861136
sg173
F842390.4058514351
sg174
F87557.36362510743
sg175
F38.8563559480644
sg176
F791.3829395899618
sg177
F0.070535
sg178
F13015.1576636599
sg179
I36
sg180
F20098.58622121252
sg181
F125044.93280166211
sg182
F1357826.889520504
ssI16
(dp197
g172
F1602.9493879663423
sg173
F852605.4276398374
sg174
F82997.1258314534
sg175
F47.396598201907054
sg176
F935.528722214529
sg177
F0.057905
sg178
F15066.3037441381
sg179
I38
sg180
F22962.984122947673
sg181
F104706.05612346336
sg182
F1527987.4019294032
ssI17
(dp198
g172
F6906.063723836996
sg173
F863489.303652863
sg174
F283694.74584890663
sg175
F37.489873710247515
sg176
F3464.5255422177806
sg177
F0.035975
sg178
F23480.766586320864
sg179
I35
sg180
F33507.767515769985
sg181
F319617.75796980027
sg182
F1343455.0425593795
sssI1445264280
(dp199
I1
(dp200
S'bkg_width_err'
p201
F1509.9729655219635
sS'spe_width'
p202
F644659.6037665237
sS'bkg_width'
p203
F63574.62982712527
sS'chi2'
p204
F40.04850620079262
sS'bkg_mean'
p205
F71315.06865770846
sS'mean_pe'
p206
F0.066145
sS'spe_width_err'
p207
F24499.476472190465
sS'ndf'
p208
I23
sS'spe_mean_err'
p209
F17636.812167865733
sS'bkg_mean_err'
p210
F771.6073840317582
sS'spe_mean'
p211
F1266335.1160601084
ssI2
(dp212
g201
F3212.6022320237735
sg202
F550611.664085574
sg203
F27079.462725502635
sg204
F21.68605946395937
sg205
F53562.649948969905
sg206
F0.05397
sg207
F34082.34929956606
sg208
I16
sg209
F28362.173318866182
sg210
F875.1044713245307
sg211
F1160505.8451907947
ssI3
(dp213
g201
F1473.626098044595
sg202
F648634.3533325278
sg203
F120660.20472608614
sg204
F28.832919017022736
sg205
F92220.71112463833
sg206
F0.06615
sg207
F33790.977931557456
sg208
I19
sg209
F24382.920828494363
sg210
F1238.267693890029
sg211
F1244917.9828505693
ssI4
(dp214
g201
F1248.6448395784246
sg202
F627509.6161152193
sg203
F59858.89046697289
sg204
F29.310086367278608
sg205
F74197.76173815028
sg206
F0.06384
sg207
F18160.858671539114
sg208
I25
sg209
F11691.79669920745
sg210
F672.1377722076599
sg211
F1202685.9185399797
ssI5
(dp215
g201
F1288.0771535105523
sg202
F889919.6853197978
sg203
F60202.038734574235
sg204
F39.119378794807396
sg205
F63313.6377959732
sg206
F0.059005
sg207
F24328.6292422635
sg208
I39
sg209
F15565.00729997815
sg210
F811.8318546072206
sg211
F1459799.588558943
ssI6
(dp216
g201
F1317.5598150575424
sg202
F912944.6743908168
sg203
F60943.697235968895
sg204
F40.569041733738146
sg205
F78783.86488242297
sg206
F0.0385
sg207
F32240.165242088784
sg208
I40
sg209
F20771.157758818084
sg210
F706.7687664517089
sg211
F1370899.4754870918
ssI7
(dp217
g201
F1505.852922044287
sg202
F749983.9291399894
sg203
F96208.00357847058
sg204
F56.474013866274156
sg205
F127600.15353360762
sg206
F0.05384
sg207
F19224.614370094554
sg208
I36
sg209
F13931.41368186926
sg210
F974.6202085007352
sg211
F1345022.8939360194
ssI8
(dp218
g201
F2492.8751267829794
sg202
F828082.3293584503
sg203
F74038.27926353794
sg204
F33.66014436274582
sg205
F86658.7281718202
sg206
F0.036005
sg207
F59574.00323047768
sg208
I25
sg209
F45426.63777435657
sg210
F1265.1426331250916
sg211
F1114679.8524447063
ssI9
(dp219
g201
F1086.52786814711
sg202
F892370.9928543085
sg203
F71514.83968778558
sg204
F31.799945922209425
sg205
F95095.51709055206
sg206
F0.05648
sg207
F25600.237203798955
sg208
I36
sg209
F16211.461610813354
sg210
F741.9686334725993
sg211
F1230125.9897063347
ssI10
(dp220
g201
F1174.9425882718715
sg202
F725624.3167322474
sg203
F58885.934400155966
sg204
F21.752800557238768
sg205
F78806.57862972135
sg206
F0.058655
sg207
F21578.003024591017
sg208
I30
sg209
F13102.989132848928
sg210
F656.9731989359564
sg211
F1327557.9800672934
ssI11
(dp221
g201
F1190.2080416522767
sg202
F766582.222028713
sg203
F59000.51481737243
sg204
F18.489110340732882
sg205
F71521.57101592436
sg206
F0.07358
sg207
F25508.05444514955
sg208
I30
sg209
F19150.593371307023
sg210
F664.1318635953446
sg211
F1498854.8364758347
ssI12
(dp222
g201
F1469.7539879993492
sg202
F698700.074371703
sg203
F63193.45063040025
sg204
F28.34072588683024
sg205
F75440.58758565622
sg206
F0.07344
sg207
F23574.93491898419
sg208
I26
sg209
F17209.193257336337
sg210
F741.2929412576474
sg211
F1324925.6470923463
ssI13
(dp223
g201
F3838.396810452068
sg202
F761393.2351560907
sg203
F86210.08129252603
sg204
F32.4025643036877
sg205
F118941.59308830308
sg206
F0.063555
sg207
F28548.65385418496
sg208
I27
sg209
F18377.21260227322
sg210
F1448.331917407317
sg211
F1180326.3156739129
ssI14
(dp224
g201
F1052.5791725031013
sg202
F781398.6033924799
sg203
F83632.92607442023
sg204
F25.22184234277938
sg205
F104353.04032040607
sg206
F0.04782
sg207
F29171.279647269053
sg208
I30
sg209
F20862.311692848853
sg210
F871.4400919035265
sg211
F1315554.6556216478
ssI16
(dp225
g201
F1331.5954746409043
sg202
F803218.2336340451
sg203
F77877.60701739715
sg204
F33.457325461908965
sg205
F102966.0883436064
sg206
F0.053685
sg207
F28354.40491856594
sg208
I32
sg209
F16188.902655265078
sg210
F820.8897828397606
sg211
F1538616.8235563529
ssI17
(dp226
g201
F4740.673664534959
sg202
F763310.013728529
sg203
F252749.46539900216
sg204
F27.457132237884522
sg205
F306810.7130561771
sg206
F0.030825
sg207
F36157.52905081614
sg208
I29
sg209
F21610.399982954827
sg210
F2731.832838080369
sg211
F1493051.4844455768
sssI1443970740
(dp227
I1
(dp228
S'bkg_width_err'
p229
F359.2761689217368
sS'spe_width'
p230
F725578.3767110602
sS'bkg_width'
p231
F56368.06672291556
sS'chi2'
p232
F9948.937579469626
sS'bkg_mean_err'
p233
F398.78531312232093
sS'mean_pe'
p234
F0.07906
sS'spe_mean_err'
p235
F6325.567306947356
sS'ndf'
p236
I61
sS'spe_width_err'
p237
F5674.524200297019
sS'bkg_mean'
p238
F73806.30452932305
sS'spe_mean'
p239
F1220168.4813683399
ssI2
(dp240
g229
F418.3564709797138
sg230
F565658.1835431181
sg231
F59878.27799387112
sg232
F1075.967308563154
sg233
F444.35632115981576
sg234
F0.06315
sg235
F5372.867099520631
sg236
I58
sg237
F4267.069230452238
sg238
F62970.16141094398
sg239
F1180408.6751916069
ssI3
(dp241
g229
F518.6502482319484
sg230
F675926.1537604782
sg231
F65463.00574394861
sg232
F287.9218507766656
sg233
F503.3054330722225
sg234
F0.08209
sg235
F5736.26778098333
sg236
I56
sg237
F5191.544123541738
sg238
F81827.76531913278
sg239
F1319235.6328284752
ssI4
(dp242
g229
F396.6833149542799
sg230
F588116.5838267388
sg231
F59135.04679861275
sg232
F1539.6477484836976
sg233
F421.8624308733062
sg234
F0.07144
sg235
F5107.338763300523
sg236
I55
sg237
F4234.12820155482
sg238
F72648.90950272129
sg239
F1248185.274110183
ssI5
(dp243
g229
F409.247033139789
sg230
F892898.0927208628
sg231
F59317.35506396293
sg232
F7915.264454195394
sg233
F439.0591955759409
sg234
F0.068955
sg235
F8312.370977690749
sg236
I77
sg237
F7368.218171211833
sg238
F61662.06749699739
sg239
F1492773.8595505694
ssI6
(dp244
g229
F1812.903930270768
sg230
F992166.9684477742
sg231
F67038.01251246447
sg232
F52.74930585236002
sg233
F905.5982452227439
sg234
F0.04452
sg235
F24404.279406605467
sg236
I37
sg237
F44737.10960406461
sg238
F81248.14488539488
sg239
F1380880.521726237
ssI7
(dp245
g229
F2795.4118027632867
sg230
F870496.8461130718
sg231
F76387.03383561273
sg232
F36.288605158916816
sg233
F1304.3027712450041
sg234
F0.04463
sg235
F17011.64711325081
sg236
I35
sg237
F28723.97998168174
sg238
F134773.57301293933
sg239
F1381124.2560422495
ssI8
(dp246
g229
F504.4119985806901
sg230
F705734.5078335324
sg231
F73278.34798478875
sg232
F1830.642033479977
sg233
F525.5631987734406
sg234
F0.043865
sg235
F7950.018853266891
sg236
I76
sg237
F6217.233361232735
sg238
F90629.8374015814
sg239
F1302370.0923988007
ssI9
(dp247
g229
F2615.596193424448
sg230
F927956.582540963
sg231
F71834.5546975102
sg232
F16.89571478777723
sg233
F1393.557679359058
sg234
F0.08601
sg235
F47013.48682322306
sg236
I23
sg237
F70526.07195998973
sg238
F87248.01385831964
sg239
F1272548.7841526952
ssI10
(dp248
g229
F377.6408613110143
sg230
F741902.8242244758
sg231
F58137.776413850916
sg232
F1071.0497262065683
sg233
F407.95247668044533
sg234
F0.06471
sg235
F6967.691493643622
sg236
I65
sg237
F6072.469498816121
sg238
F75105.91340460876
sg239
F1439255.191761614
ssI11
(dp249
g229
F1213.90649428478
sg230
F796854.5006410519
sg231
F58718.34962406509
sg232
F28.903946593413032
sg233
F697.4580218563397
sg234
F0.088
sg235
F13747.384899091307
sg236
I31
sg237
F24619.03538682504
sg238
F68860.38411291051
sg239
F1507850.5997886246
ssI12
(dp250
g229
F471.53092726752584
sg230
F753887.0616406576
sg231
F63265.81488646691
sg232
F7644.379694885253
sg233
F470.6129447610766
sg234
F0.08769
sg235
F6283.588919769457
sg236
I65
sg237
F5540.588047460944
sg238
F73617.07134450582
sg239
F1338132.6919981947
ssI13
(dp251
g229
F3499.2203286954755
sg230
F564429.3272921785
sg231
F177402.50671205355
sg232
F21.340131780093966
sg233
F2057.8604476937035
sg234
F0.051315
sg235
F17189.046495914594
sg236
I17
sg237
F31854.349864660297
sg238
F288427.8848170244
sg239
F1411430.5633688334
ssI14
(dp252
g229
F1296.0069977201056
sg230
F848853.9904756247
sg231
F87009.35341294351
sg232
F20.190562447120502
sg233
F947.1427869599719
sg234
F0.0722
sg235
F32308.27708142459
sg236
I24
sg237
F54789.690173016046
sg238
F117166.0287872243
sg239
F1280053.5726661736
ssI15
(dp253
g229
F3817.898605412207
sg230
F671232.3587277309
sg231
F210268.18121918966
sg232
F24.293242389422034
sg233
F2419.9398912255147
sg234
F0.05985
sg235
F34233.3315834128
sg236
I20
sg237
F36842.219502211316
sg238
F480224.72272070975
sg239
F1571310.8259430267
ssI16
(dp254
g229
F671.838276803268
sg230
F933741.6640480118
sg231
F82492.17679465459
sg232
F220.63641347278457
sg233
F623.0412305520048
sg234
F0.066265
sg235
F9452.138484939453
sg236
I69
sg237
F9479.825030583772
sg238
F101349.59363292252
sg239
F1494234.1325057966
ssI17
(dp255
g229
F3522.4380786861657
sg230
F801048.8973592379
sg231
F123803.35142274709
sg232
F26.462295228185663
sg233
F1950.8921818186313
sg234
F0.041785
sg235
F48679.60665304832
sg236
I22
sg237
F66583.55648512079
sg238
F192599.36956055346
sg239
F1359721.6890120993
sssI1445613120
(dp256
I1
(dp257
S'bkg_width_err'
p258
F1099.4579745036317
sS'spe_width'
p259
F656453.6217774851
sS'bkg_width'
p260
F73963.51466444721
sS'chi2'
p261
F35.51070597537756
sS'bkg_mean'
p262
F59780.3560399632
sS'mean_pe'
p263
F0.077915
sS'spe_width_err'
p264
F18836.87283385638
sS'ndf'
p265
I26
sS'spe_mean_err'
p266
F13204.995190968819
sS'bkg_mean_err'
p267
F750.2127485395401
sS'spe_mean'
p268
F1268628.7561044418
ssI2
(dp269
g258
F4046.638721398116
sg259
F561920.533055712
sg260
F27373.46897554314
sg261
F26.33892418178402
sg262
F52551.59339182752
sg263
F0.06288
sg264
F20748.425018793438
sg265
I20
sg266
F13807.92539945196
sg267
F791.7214136588177
sg268
F1144961.8991047882
ssI3
(dp270
g258
F2241.8398563579394
sg259
F609033.0553912042
sg260
F71731.59483661402
sg261
F20.99883863191861
sg262
F77527.94855868147
sg263
F0.08524
sg264
F16510.323976051994
sg265
I24
sg266
F11715.682549234423
sg267
F981.2588231629956
sg268
F1325222.9855850926
ssI4
(dp271
g258
F1393.281617720484
sg259
F580753.826104813
sg260
F62093.3220589722
sg261
F42.50952321935473
sg262
F68632.33848050618
sg263
F0.07723
sg264
F14382.906716792611
sg265
I24
sg266
F9229.397498505734
sg267
F759.5879779779699
sg268
F1202407.9321848943
ssI5
(dp272
g258
F3653.5101207310254
sg259
F811941.37816671
sg260
F27654.134213203903
sg261
F42.286035779666456
sg262
F51376.676396674055
sg263
F0.06961
sg264
F21660.58877922379
sg265
I35
sg266
F14912.81917298429
sg267
F443.15139649273334
sg268
F1493378.6136651125
ssI6
(dp273
g258
F1461.2134640101358
sg259
F808528.2785677739
sg260
F80055.30462404153
sg261
F30.164318996698565
sg262
F71360.38550649142
sg263
F0.04384
sg264
F33246.253303143196
sg265
I32
sg266
F21852.964533390677
sg267
F1080.6074536472781
sg268
F1414428.1468167799
ssI7
(dp274
g258
F1363.9039112538885
sg259
F841842.8750124858
sg260
F106242.32687160892
sg261
F37.26222913603218
sg262
F73992.60976538662
sg263
F0.05208
sg264
F27587.507209135452
sg265
I34
sg266
F18123.606332979623
sg267
F1095.374403509748
sg268
F1364992.9752842265
ssI8
(dp275
g258
F2726.346441903712
sg259
F855866.7470657812
sg260
F76121.43561131894
sg261
F29.63233636170035
sg262
F80161.76277514364
sg263
F0.04332
sg264
F39986.49637498066
sg265
I30
sg266
F23039.46441545247
sg267
F1148.911143961247
sg268
F1087811.7693508265
ssI9
(dp276
g258
F2794.027504893471
sg259
F777416.8860587557
sg260
F76742.88133571322
sg261
F34.092108541313465
sg262
F68851.62094845746
sg263
F0.079035
sg264
F36323.75208380836
sg265
I24
sg266
F19286.330568386275
sg267
F1190.6380071995093
sg268
F1254705.773252348
ssI10
(dp277
g258
F1344.9125218879017
sg259
F710991.350718468
sg260
F61706.34936764824
sg261
F19.017291595197364
sg262
F69339.3306004327
sg263
F0.069195
sg264
F24829.585489843623
sg265
I26
sg266
F17663.5994810947
sg267
F731.3064709539489
sg268
F1329736.9960680092
ssI11
(dp278
g258
F1326.6051734638168
sg259
F784351.387112052
sg260
F61146.28266896584
sg261
F30.71412342427005
sg262
F67259.47178815029
sg263
F0.08076
sg264
F24670.68517704628
sg265
I30
sg266
F13842.958129828932
sg267
F752.2817932687366
sg268
F1475882.7644727484
ssI12
(dp279
g258
F1201.508839914677
sg259
F749490.0660317561
sg260
F75953.91344088376
sg261
F40.44361756845249
sg262
F61874.12902111302
sg263
F0.0869
sg264
F17180.879650488787
sg265
I32
sg266
F10939.182519421105
sg267
F815.616606316921
sg268
F1293521.0145349477
ssI13
(dp280
g258
F2933.015798146429
sg259
F740172.8435704769
sg260
F79390.45233828436
sg261
F21.808453469442693
sg262
F124665.29555962626
sg263
F0.072765
sg264
F20561.66949798516
sg265
I29
sg266
F12587.904132568812
sg267
F1131.0413846519607
sg268
F1196609.4525766477
ssI14
(dp281
g258
F1483.893168486975
sg259
F847795.8996896679
sg260
F80656.72813036766
sg261
F28.767764312999912
sg262
F85917.41094267872
sg263
F0.0631
sg264
F27683.435453148908
sg265
I33
sg266
F17085.702785541325
sg267
F974.7845721127017
sg268
F1265179.045983874
ssI15
(dp282
g258
F2035.7461288230625
sg259
F857482.0495104273
sg260
F107576.18398356033
sg261
F47.757379679150105
sg262
F102878.2142829483
sg263
F0.080625
sg264
F25336.224015258485
sg265
I32
sg266
F13746.628603675566
sg267
F1462.211778302934
sg268
F1374096.017478441
ssI16
(dp283
g258
F1699.6860887786243
sg259
F822593.3580492119
sg260
F84661.70781932751
sg261
F29.693556326468748
sg262
F97802.77892211852
sg263
F0.06375
sg264
F23316.227079846198
sg265
I35
sg266
F15020.339984722417
sg267
F955.1271678783703
sg268
F1538737.3161909317
sssI1444744980
(dp284
I1
(dp285
S'bkg_width_err'
p286
F494.50873233763195
sS'spe_width'
p287
F643533.5531331034
sS'bkg_width'
p288
F63969.44858902106
sS'chi2'
p289
F1172.6297428130028
sS'bkg_mean_err'
p290
F490.3211927817722
sS'mean_pe'
p291
F0.076135
sS'spe_mean_err'
p292
F5586.808204058243
sS'ndf'
p293
I62
sS'spe_width_err'
p294
F4569.2601368826
sS'bkg_mean'
p295
F81219.2007150585
sS'spe_mean'
p296
F1283522.8041000231
ssI2
(dp297
g286
F390.0422633284106
sg287
F576554.0487518322
sg288
F58256.954825667235
sg289
F1848.101815688939
sg290
F422.2025763135415
sg291
F0.06739
sg292
F5324.753282012348
sg293
I59
sg294
F4241.160117697378
sg295
F66552.11260201303
sg296
F1139838.0604737285
ssI3
(dp298
g286
F552.3584004493096
sg287
F595259.9296488656
sg288
F94980.05868321772
sg289
F235.4060900145542
sg290
F648.3505885382641
sg291
F0.08036
sg292
F4964.472601292254
sg293
I55
sg294
F4146.9839448713465
sg295
F110857.0636395172
sg296
F1327570.0932340003
ssI4
(dp299
g286
F392.6528104843601
sg287
F577078.2639526301
sg288
F58866.24072335523
sg289
F870.5926756811751
sg290
F419.53418819187726
sg291
F0.0744
sg292
F4935.192751849467
sg293
I53
sg294
F4132.219609570224
sg295
F72815.4673307469
sg296
F1233732.5072621247
ssI5
(dp300
g286
F401.9481588589333
sg287
F889269.1992180614
sg288
F58740.02614144904
sg289
F4312.47282182951
sg290
F435.32993780634683
sg291
F0.06947
sg292
F8335.260416516372
sg293
I74
sg294
F7596.233954294294
sg295
F60829.646555948064
sg296
F1494858.0497784254
ssI6
(dp301
g286
F451.88993037595355
sg287
F939002.394299287
sg288
F62299.211921012706
sg289
F10367.801000547117
sg290
F458.68916334356527
sg291
F0.044915
sg292
F11083.595883560893
sg293
I75
sg294
F10442.860522400995
sg295
F79995.45361306671
sg296
F1314119.8963529412
ssI7
(dp302
g286
F1497.9416700366273
sg287
F885191.8251501247
sg288
F80591.7375509274
sg289
F39.323955619204526
sg290
F888.8238594987658
sg291
F0.05138
sg292
F16379.528899051516
sg293
I36
sg294
F28032.304424661153
sg295
F96742.57610878901
sg296
F1324623.3769015633
ssI8
(dp303
g286
F2116.4901911343113
sg287
F805634.7127046244
sg288
F69978.57916896167
sg289
F43.1146903877073
sg290
F1208.4325793383216
sg291
F0.04559
sg292
F15516.802426071556
sg293
I37
sg294
F22417.71442972432
sg295
F88914.15313736907
sg296
F1170365.1155782142
ssI9
(dp304
g286
F2452.923124069959
sg287
F951451.808383783
sg288
F72105.85674278793
sg289
F56.902164998891834
sg290
F1512.3052605197531
sg291
F0.08536
sg292
F14720.240170154744
sg293
I39
sg294
F23909.32636347669
sg295
F92317.78810100052
sg296
F1221141.4933279976
ssI10
(dp305
g286
F395.8829476077517
sg287
F706339.3646369294
sg288
F58969.99106701821
sg289
F962.0298146249215
sg290
F422.032872910586
sg291
F0.06735
sg292
F6443.322196099446
sg293
I63
sg294
F5537.042266897741
sg295
F75005.12403144297
sg296
F1403975.4809877572
ssI11
(dp306
g286
F1082.0784981042707
sg287
F845294.2700320458
sg288
F57070.10186432849
sg289
F25.755490741745575
sg290
F623.7761659689206
sg291
F0.084295
sg292
F15214.284128987549
sg293
I31
sg294
F28677.999186749163
sg295
F72185.86896135213
sg296
F1485498.1555072188
ssI12
(dp307
g286
F1326.8059085235545
sg287
F781222.4102846629
sg288
F60960.84143966577
sg289
F39.59561455605338
sg290
F739.1212407930914
sg291
F0.086775
sg292
F12724.224052602234
sg293
I30
sg294
F21943.120447525813
sg295
F81078.94260925177
sg296
F1306249.3485428402
ssI13
(dp308
g286
F3176.8549721421587
sg287
F649583.0961507696
sg288
F81140.10227575421
sg289
F11.9972894670283
sg290
F1219.8287719840146
sg291
F0.07414
sg292
F38840.285386581185
sg293
I15
sg294
F55110.36299834668
sg295
F122550.84332471923
sg296
F1239520.43805637
ssI14
(dp309
g286
F1382.835714173263
sg287
F865440.7523862643
sg288
F78058.56483528014
sg289
F46.84161942726095
sg290
F859.9493852452682
sg291
F0.06537
sg292
F15847.212240474748
sg293
I39
sg294
F21130.082606420154
sg295
F105119.46390272782
sg296
F1265673.681123442
ssI15
(dp310
g286
F1628.325744617876
sg287
F814331.9646003443
sg288
F82956.40296001323
sg289
F56.076800367966285
sg290
F1204.1776684195925
sg291
F0.08168
sg292
F12344.257825169507
sg293
I32
sg294
F21888.97090699378
sg295
F123130.21427175672
sg296
F1395551.4207101646
ssI16
(dp311
g286
F679.8629587457617
sg287
F906231.0901726361
sg288
F82894.59875355949
sg289
F207.64322080613238
sg290
F627.4474208209466
sg291
F0.06423
sg292
F9312.451132354283
sg293
I68
sg294
F9213.162285587867
sg295
F99615.98776067464
sg296
F1473647.8157888732
ssI17
(dp312
g286
F9267.057151180838
sg287
F960873.5273026536
sg288
F270498.4297649565
sg289
F12.800509670815945
sg290
F4306.772174614169
sg291
F0.043285
sg292
F83648.62089560932
sg293
I22
sg294
F114780.33470726304
sg295
F302924.5862741839
sg296
F1396321.0581535692
sssI1442430120
(dp313
I1
(dp314
S'bkg_width_err'
p315
F496.847412280993
sS'spe_width'
p316
F674671.6051549254
sS'bkg_width'
p317
F90675.67077230327
sS'chi2'
p318
F481.5441061636841
sS'bkg_mean_err'
p319
F601.4895048444221
sS'mean_pe'
p320
F0.085775
sS'spe_mean_err'
p321
F5605.584585213893
sS'ndf'
p322
I58
sS'spe_width_err'
p323
F4928.576813651365
sS'bkg_mean'
p324
F104579.94910947891
sS'spe_mean'
p325
F1279804.6774689993
ssI2
(dp326
g315
F313.3875592508739
sg316
F585817.7067218858
sg317
F61733.70399147727
sg318
F1848.7687306552666
sg319
F409.2530421800406
sg320
F0.077045
sg321
F5040.571909270495
sg322
I56
sg323
F4129.06360381539
sg324
F64441.629978403456
sg325
F1171363.2224231204
ssI3
(dp327
g315
F633.6339320246989
sg316
F645228.9921519094
sg317
F113332.83663670876
sg318
F227.7690671367489
sg319
F755.912804324635
sg320
F0.095535
sg321
F5067.441760338517
sg322
I55
sg323
F4483.7978630572325
sg324
F123209.3568437751
sg325
F1348254.1213245813
ssI4
(dp328
g315
F285.17412748301285
sg316
F606860.6877778193
sg317
F62025.23501009047
sg318
F528.4094174433076
sg319
F401.570703573527
sg320
F0.08617
sg321
F4847.418223366522
sg322
I54
sg323
F4151.115473630489
sg324
F68986.81237821684
sg325
F1262157.4569264413
ssI5
(dp329
g315
F304.3771588958625
sg316
F874524.4471901848
sg317
F63790.600264540946
sg318
F3716.0080763524124
sg319
F412.36817823511024
sg320
F0.07812
sg321
F7747.587960727158
sg322
I75
sg323
F6894.069715651509
sg324
F63784.735433792404
sg325
F1573554.6679119268
ssI6
(dp330
g315
F345.0170397776965
sg316
F920359.2447483339
sg317
F66539.41553822554
sg318
F11284.779618610935
sg319
F433.84498958636493
sg320
F0.048905
sg321
F10379.275193841766
sg322
I75
sg323
F9623.868472454313
sg324
F78405.33820809389
sg325
F1297778.8570056604
ssI7
(dp331
g315
F1713.1165255972592
sg316
F1041960.0807747107
sg317
F83204.34301440963
sg318
F73.60767356467144
sg319
F1003.1599314783606
sg320
F0.061465
sg321
F20849.68157801443
sg322
I38
sg323
F38011.09933361632
sg324
F93786.5007346579
sg325
F1439496.9793617716
ssI8
(dp332
g315
F1148.6756441049656
sg316
F704500.1567347852
sg317
F73960.53775691026
sg318
F79.03168217845399
sg319
F787.1654161387524
sg320
F0.053885
sg321
F12577.727045157291
sg322
I39
sg323
F13567.623766331992
sg324
F89834.3468190193
sg325
F1154641.8316745171
ssI9
(dp333
g315
F1058.0599901804817
sg316
F855590.6801900103
sg317
F71360.72206585573
sg318
F40.00852542390481
sg319
F782.7420095013022
sg320
F0.1018
sg321
F17233.91254834279
sg322
I28
sg323
F33392.57952248404
sg324
F85967.39127242561
sg325
F1375143.0859629172
ssI10
(dp334
g315
F311.07366936108156
sg316
F775399.6744096134
sg317
F62135.64990969245
sg318
F2523.475481916825
sg319
F405.9689355964642
sg320
F0.077145
sg321
F6645.820899086701
sg322
I69
sg323
F5738.481767237361
sg324
F73503.91700003242
sg325
F1495716.006721059
ssI11
(dp335
g315
F464.3657864905035
sg316
F828888.0848139864
sg317
F62547.770703399154
sg318
F38.20728078463826
sg319
F469.1764043718971
sg320
F0.09693
sg321
F13671.522078438811
sg322
I31
sg323
F25478.32359024207
sg324
F71756.76927912816
sg325
F1509341.046726276
ssI12
(dp336
g315
F318.80213329901017
sg316
F750707.6527576656
sg317
F68797.00185020792
sg318
F4691.733189487963
sg319
F438.00379279403376
sg320
F0.101605
sg321
F5707.190576878593
sg322
I68
sg323
F4860.904325687734
sg324
F69757.75612360153
sg325
F1415666.599735183
ssI13
(dp337
g315
F2656.629023501424
sg316
F692163.6304701314
sg317
F98023.53140808892
sg318
F15.456113311725028
sg319
F1404.5299567434959
sg320
F0.08734
sg321
F20134.888440631097
sg322
I19
sg323
F38392.59713652887
sg324
F137657.1802527291
sg325
F1227748.157033399
ssI14
(dp338
g315
F1186.714745174555
sg316
F730283.4852091952
sg317
F87540.76297907266
sg318
F175.9436290793391
sg319
F857.2091067064506
sg320
F0.07511
sg321
F10278.43823843171
sg322
I43
sg323
F10725.453749089676
sg324
F118555.17617560943
sg325
F1273004.603662827
ssI15
(dp339
g315
F5311.715819228659
sg316
F762333.1606139832
sg317
F264395.1122125985
sg318
F23.317554285510656
sg319
F3417.248768011277
sg320
F0.08639
sg321
F11920.30751361658
sg322
I29
sg323
F21716.139969471726
sg324
F341372.79139405
sg325
F1501760.2468424172
ssI16
(dp340
g315
F414.6041848045206
sg316
F948778.7656146125
sg317
F87045.24623928482
sg318
F144.29431348671676
sg319
F544.4615134329973
sg320
F0.072175
sg321
F9518.571195396242
sg322
I67
sg323
F9893.304833019502
sg324
F106526.75934885872
sg325
F1459283.9963071118
ssI17
(dp341
g315
F3531.107656902008
sg316
F976170.3185360343
sg317
F166059.32829801724
sg318
F22.421867138094797
sg319
F1968.783809650693
sg320
F0.04705
sg321
F52003.65647468505
sg322
I26
sg323
F77687.2635186796
sg324
F290254.4338848929
sg325
F1436778.495272948
sssI1444134000
(dp342
I17
(dp343
S'bkg_width_err'
p344
F3970.670338203301
sS'spe_width'
p345
F823633.0353218939
sS'bkg_width'
p346
F128306.28946129001
sS'chi2'
p347
F56.08848993278452
sS'bkg_mean'
p348
F205504.5801291204
sS'mean_pe'
p349
F0.044635
sS'spe_width_err'
p350
F22905.84331707371
sS'ndf'
p351
I38
sS'spe_mean_err'
p352
F15803.890184111413
sS'bkg_mean_err'
p353
F2171.258871679076
sS'spe_mean'
p354
F1342162.761094369
ssss.