(dp0
S'nerix_150914_1307.root'
p1
(dp2
S'S1UB'
p3
F400.0
sS'S1NB'
p4
I25
sS'S2LB'
p5
F4000.0
sS'S2NB'
p6
I25
sS'S1LB'
p7
F120.0
sS'S2UB'
p8
F28000.0
ssS'nerix_160125_1645.root'
p9
(dp10
S'S1UB'
p11
I3500
sS'S1NB'
p12
I80
sS'S2LB'
p13
I0
sS'S2NB'
p14
I80
sS'S1LB'
p15
I0
sS'S2UB'
p16
F1100000.0
ssS'nerix_151019_1635.root'
p17
(dp18
S'S1UB'
p19
F1100.0
sS'S1NB'
p20
I25
sS'S2LB'
p21
F150000.0
sS'S2NB'
p22
I25
sS'S1LB'
p23
F450.0
sS'S2UB'
p24
F370000.0
ssS'nerix_151223_1157.root'
p25
(dp26
S'S1UB'
p27
I3500
sS'S1NB'
p28
I80
sS'S2LB'
p29
I0
sS'S2NB'
p30
I80
sS'S1LB'
p31
I0
sS'S2UB'
p32
F1100000.0
ssS'nerix_160125_1300.root'
p33
(dp34
S'S1UB'
p35
I3500
sS'S1NB'
p36
I80
sS'S2LB'
p37
I0
sS'S2NB'
p38
I80
sS'S1LB'
p39
I0
sS'S2UB'
p40
F1100000.0
ssS'nerix_151102_1126.root'
p41
(dp42
S'S1UB'
p43
I1400
sS'S1NB'
p44
I25
sS'S2LB'
p45
F70000.0
sS'S2NB'
p46
I25
sS'S1LB'
p47
F600.0
sS'S2UB'
p48
F300000.0
ssS'nerix_160125_1423.root'
p49
(dp50
S'S1UB'
p51
I3500
sS'S1NB'
p52
I80
sS'S2LB'
p53
I0
sS'S2NB'
p54
I80
sS'S1LB'
p55
I0
sS'S2UB'
p56
F1100000.0
ssS'nerix_160104_1236.root'
p57
(dp58
S'S1UB'
p59
I3500
sS'S1NB'
p60
I80
sS'S2LB'
p61
I0
sS'S2NB'
p62
I80
sS'S1LB'
p63
I0
sS'S2UB'
p64
F1100000.0
ssS'nerix_141208_1123.root'
p65
(dp66
S'S1UB'
p67
I3500
sS'S1NB'
p68
I80
sS'S2LB'
p69
I0
sS'S2NB'
p70
I80
sS'S1LB'
p71
I0
sS'S2UB'
p72
F700000.0
ssS'nerix_151203_1119.root'
p73
(dp74
S'S1UB'
p75
I3500
sS'S1NB'
p76
I80
sS'S2LB'
p77
I0
sS'S2NB'
p78
I80
sS'S1LB'
p79
I0
sS'S2UB'
p80
F1100000.0
ssS'nerix_151028_1231.root'
p81
(dp82
S'S1UB'
p83
F1200.0
sS'S1NB'
p84
I25
sS'S2LB'
p85
F20000.0
sS'S2NB'
p86
I25
sS'S1LB'
p87
F400.0
sS'S2UB'
p88
F100000.0
ssS'nerix_160104_1840.root'
p89
(dp90
S'S1UB'
p91
I1400
sS'S1NB'
p92
I50
sS'S2LB'
p93
I0
sS'S2NB'
p94
I50
sS'S1LB'
p95
I0
sS'S2UB'
p96
F400000.0
ssS'nerix_150204_1210.root'
p97
(dp98
S'S1UB'
p99
I3500
sS'S1NB'
p100
I80
sS'S2LB'
p101
I0
sS'S2NB'
p102
I80
sS'S1LB'
p103
I0
sS'S2UB'
p104
F700000.0
ssS'nerix_151116_1552.root'
p105
(dp106
S'S1UB'
p107
F300.0
sS'S1NB'
p108
I15
sS'S2LB'
p109
F10000.0
sS'S2NB'
p110
I15
sS'S1LB'
p111
F50.0
sS'S2UB'
p112
F40000.0
ssS'nerix_160329_2215.root'
p113
(dp114
S'S1UB'
p115
I3500
sS'S1NB'
p116
I80
sS'S2LB'
p117
I0
sS'S2NB'
p118
I80
sS'S1LB'
p119
I0
sS'S2UB'
p120
F700000.0
ssS'nerix_151004_1554.root'
p121
(dp122
S'S1UB'
p123
F400.0
sS'S1NB'
p124
I25
sS'S2LB'
p125
F10000.0
sS'S2NB'
p126
I25
sS'S1LB'
p127
F100.0
sS'S2UB'
p128
F60000.0
ssS'nerix_160222_1224.root'
p129
(dp130
S'S1UB'
p131
I3500
sS'S1NB'
p132
I80
sS'S2LB'
p133
I0
sS'S2NB'
p134
I80
sS'S1LB'
p135
I0
sS'S2UB'
p136
F1100000.0
ssS'nerix_160404_1421.root'
p137
(dp138
S'S1UB'
p139
I3500
sS'S1NB'
p140
I80
sS'S2LB'
p141
I0
sS'S2NB'
p142
I80
sS'S1LB'
p143
I0
sS'S2UB'
p144
F700000.0
ssS'nerix_160112_1701.root'
p145
(dp146
S'S1UB'
p147
I1400
sS'S1NB'
p148
I50
sS'S2LB'
p149
I0
sS'S2NB'
p150
I50
sS'S1LB'
p151
I0
sS'S2UB'
p152
F400000.0
ssS'nerix_141210_1028.root'
p153
(dp154
S'S1UB'
p155
I3500
sS'S1NB'
p156
I80
sS'S2LB'
p157
I0
sS'S2NB'
p158
I80
sS'S1LB'
p159
I0
sS'S2UB'
p160
F700000.0
ssS'nerix_151004_1358.root'
p161
(dp162
S'S1UB'
p163
F400.0
sS'S1NB'
p164
I25
sS'S2LB'
p165
F20000.0
sS'S2NB'
p166
I25
sS'S1LB'
p167
F100.0
sS'S2UB'
p168
F70000.0
ssS'nerix_160202_0914.root'
p169
(dp170
S'S1UB'
p171
I1400
sS'S1NB'
p172
I50
sS'S2LB'
p173
I0
sS'S2NB'
p174
I50
sS'S1LB'
p175
I0
sS'S2UB'
p176
F400000.0
ssS'nerix_151119_1447.root'
p177
(dp178
S'S1UB'
p179
I3500
sS'S1NB'
p180
I50
sS'S2LB'
p181
I0
sS'S2NB'
p182
I50
sS'S1LB'
p183
I0
sS'S2UB'
p184
F1100000.0
ssS'nerix_160404_1447.root'
p185
(dp186
S'S1UB'
p187
I3500
sS'S1NB'
p188
I80
sS'S2LB'
p189
I0
sS'S2NB'
p190
I80
sS'S1LB'
p191
I0
sS'S2UB'
p192
F700000.0
ssS'nerix_160127_1530.root'
p193
(dp194
S'S1UB'
p195
I3500
sS'S1NB'
p196
I80
sS'S2LB'
p197
I0
sS'S2NB'
p198
I80
sS'S1LB'
p199
I0
sS'S2UB'
p200
F1100000.0
ssS'nerix_160204_1242.root'
p201
(dp202
S'S1UB'
p203
I3500
sS'S1NB'
p204
I80
sS'S2LB'
p205
I0
sS'S2NB'
p206
I80
sS'S1LB'
p207
I0
sS'S2UB'
p208
F1100000.0
ssS'nerix_160208_1010.root'
p209
(dp210
S'S1UB'
p211
I3500
sS'S1NB'
p212
I80
sS'S2LB'
p213
I0
sS'S2NB'
p214
I80
sS'S1LB'
p215
I0
sS'S2UB'
p216
F1100000.0
ssS'nerix_160125_1521.root'
p217
(dp218
S'S1UB'
p219
I3500
sS'S1NB'
p220
I80
sS'S2LB'
p221
I0
sS'S2NB'
p222
I80
sS'S1LB'
p223
I0
sS'S2UB'
p224
F1100000.0
ssS'nerix_160127_1623.root'
p225
(dp226
S'S1UB'
p227
I3500
sS'S1NB'
p228
I80
sS'S2LB'
p229
I0
sS'S2NB'
p230
I80
sS'S1LB'
p231
I0
sS'S2UB'
p232
F1100000.0
ssS'nerix_160118_1341.root'
p233
(dp234
S'S1UB'
p235
I3500
sS'S1NB'
p236
I80
sS'S2LB'
p237
I0
sS'S2NB'
p238
I80
sS'S1LB'
p239
I0
sS'S2UB'
p240
F1100000.0
ssS'nerix_151229_1029.root'
p241
(dp242
S'S1UB'
p243
I3500
sS'S1NB'
p244
I80
sS'S2LB'
p245
I0
sS'S2NB'
p246
I80
sS'S1LB'
p247
I0
sS'S2UB'
p248
F1100000.0
ssS'nerix_151029_0923.root'
p249
(dp250
S'S1UB'
p251
F370.0
sS'S1NB'
p252
I15
sS'S2LB'
p253
F15000.0
sS'S2NB'
p254
I15
sS'S1LB'
p255
F150.0
sS'S2UB'
p256
F45000.0
ssS'nerix_151223_1249.root'
p257
(dp258
S'S1UB'
p259
I3500
sS'S1NB'
p260
I80
sS'S2LB'
p261
I0
sS'S2NB'
p262
I80
sS'S1LB'
p263
I0
sS'S2UB'
p264
F1100000.0
ssS'nerix_160229_2237.root'
p265
(dp266
S'S1UB'
p267
I1400
sS'S1NB'
p268
I50
sS'S2LB'
p269
I0
sS'S2NB'
p270
I50
sS'S1LB'
p271
I0
sS'S2UB'
p272
F400000.0
ssS'nerix_151201_1344.root'
p273
(dp274
S'S1UB'
p275
I3500
sS'S1NB'
p276
I80
sS'S2LB'
p277
I0
sS'S2NB'
p278
I80
sS'S1LB'
p279
I0
sS'S2UB'
p280
F1100000.0
ssS'nerix_160208_1817.root'
p281
(dp282
S'S1UB'
p283
I1400
sS'S1NB'
p284
I50
sS'S2LB'
p285
I0
sS'S2NB'
p286
I50
sS'S1LB'
p287
I0
sS'S2UB'
p288
F400000.0
ssS'nerix_160229_1408.root'
p289
(dp290
S'S1UB'
p291
I3500
sS'S1NB'
p292
I80
sS'S2LB'
p293
I0
sS'S2NB'
p294
I80
sS'S1LB'
p295
I0
sS'S2UB'
p296
F1100000.0
ssS'nerix_160216_1305.root'
p297
(dp298
S'S1UB'
p299
I3500
sS'S1NB'
p300
I80
sS'S2LB'
p301
I0
sS'S2NB'
p302
I80
sS'S1LB'
p303
I0
sS'S2UB'
p304
F1100000.0
ssS'nerix_150210_1210.root'
p305
(dp306
S'S1UB'
p307
I3500
sS'S1NB'
p308
I80
sS'S2LB'
p309
I0
sS'S2NB'
p310
I80
sS'S1LB'
p311
I0
sS'S2UB'
p312
F700000.0
ssS'nerix_160112_1250.root'
p313
(dp314
S'S1UB'
p315
I3500
sS'S1NB'
p316
I80
sS'S2LB'
p317
I0
sS'S2NB'
p318
I80
sS'S1LB'
p319
I0
sS'S2UB'
p320
F1100000.0
ssS'nerix_151216_1419.root'
p321
(dp322
S'S1UB'
p323
I1400
sS'S1NB'
p324
I50
sS'S2LB'
p325
I0
sS'S2NB'
p326
I50
sS'S1LB'
p327
I0
sS'S2UB'
p328
F400000.0
ssS'nerix_151228_1409.root'
p329
(dp330
S'S1UB'
p331
I3500
sS'S1NB'
p332
I80
sS'S2LB'
p333
I0
sS'S2NB'
p334
I80
sS'S1LB'
p335
I0
sS'S2UB'
p336
F1100000.0
ssS'nerix_141003_1232.root'
p337
(dp338
S'S1UB'
p339
I3500
sS'S1NB'
p340
I80
sS'S2LB'
p341
I0
sS'S2NB'
p342
I80
sS'S1LB'
p343
I0
sS'S2UB'
p344
F600000.0
ssS'nerix_151203_1345.root'
p345
(dp346
S'S1UB'
p347
I3500
sS'S1NB'
p348
I80
sS'S2LB'
p349
I0
sS'S2NB'
p350
I80
sS'S1LB'
p351
I0
sS'S2UB'
p352
F1100000.0
ssS'nerix_150915_1332.root'
p353
(dp354
S'S1UB'
p355
F400.0
sS'S1NB'
p356
I20
sS'S2LB'
p357
F18000.0
sS'S2NB'
p358
I20
sS'S1LB'
p359
F100.0
sS'S2UB'
p360
F40000.0
ssS'nerix_160208_1454.root'
p361
(dp362
S'S1UB'
p363
I3500
sS'S1NB'
p364
I80
sS'S2LB'
p365
I0
sS'S2NB'
p366
I80
sS'S1LB'
p367
I0
sS'S2UB'
p368
F1100000.0
ssS'nerix_160204_1026.root'
p369
(dp370
S'S1UB'
p371
I3500
sS'S1NB'
p372
I80
sS'S2LB'
p373
I0
sS'S2NB'
p374
I80
sS'S1LB'
p375
I0
sS'S2UB'
p376
F1100000.0
ssS'nerix_160125_1452.root'
p377
(dp378
S'S1UB'
p379
I3500
sS'S1NB'
p380
I80
sS'S2LB'
p381
I0
sS'S2NB'
p382
I80
sS'S1LB'
p383
I0
sS'S2UB'
p384
F1100000.0
ssS'nerix_151102_1232.root'
p385
(dp386
S'S1UB'
p387
F1200.0
sS'S1NB'
p388
I15
sS'S2LB'
p389
F100000.0
sS'S2NB'
p390
I15
sS'S1LB'
p391
F550.0
sS'S2UB'
p392
F280000.0
ssS'nerix_150914_1549.root'
p393
(dp394
S'S1UB'
p395
F400.0
sS'S1NB'
p396
I20
sS'S2LB'
p397
F14000.0
sS'S2NB'
p398
I20
sS'S1LB'
p399
F120.0
sS'S2UB'
p400
F36000.0
ssS'nerix_151223_1222.root'
p401
(dp402
S'S1UB'
p403
I3500
sS'S1NB'
p404
I80
sS'S2LB'
p405
I0
sS'S2NB'
p406
I80
sS'S1LB'
p407
I0
sS'S2UB'
p408
F1100000.0
ssS'nerix_151005_1436.root'
p409
(dp410
S'S1UB'
p411
F1000.0
sS'S1NB'
p412
I25
sS'S2LB'
p413
F45000.0
sS'S2NB'
p414
I25
sS'S1LB'
p415
F400.0
sS'S2UB'
p416
F220000.0
ssS'nerix_141015_1155.root'
p417
(dp418
S'S1UB'
p419
I3500
sS'S1NB'
p420
I80
sS'S2LB'
p421
I0
sS'S2NB'
p422
I80
sS'S1LB'
p423
I0
sS'S2UB'
p424
F600000.0
ssS'nerix_141001_1102.root'
p425
(dp426
S'S1UB'
p427
I3500
sS'S1NB'
p428
I80
sS'S2LB'
p429
I0
sS'S2NB'
p430
I80
sS'S1LB'
p431
I0
sS'S2UB'
p432
F600000.0
ssS'nerix_140924_1158.root'
p433
(dp434
S'S1UB'
p435
I3500
sS'S1NB'
p436
I80
sS'S2LB'
p437
I0
sS'S2NB'
p438
I80
sS'S1LB'
p439
I0
sS'S2UB'
p440
F600000.0
ssS'nerix_151123_1347.root'
p441
(dp442
S'S1UB'
p443
F400.0
sS'S1NB'
p444
I15
sS'S2LB'
p445
I0
sS'S2NB'
p446
I15
sS'S1LB'
p447
I0
sS'S2UB'
p448
F50000.0
ssS'nerix_160208_2038.root'
p449
(dp450
S'S1UB'
p451
I1400
sS'S1NB'
p452
I50
sS'S2LB'
p453
I0
sS'S2NB'
p454
I50
sS'S1LB'
p455
I0
sS'S2UB'
p456
F400000.0
ssS'nerix_160229_1659.root'
p457
(dp458
S'S1UB'
p459
I1400
sS'S1NB'
p460
I50
sS'S2LB'
p461
I0
sS'S2NB'
p462
I50
sS'S1LB'
p463
I0
sS'S2UB'
p464
F400000.0
ssS'nerix_150902_1446.root'
p465
(dp466
S'S1UB'
p467
F400.0
sS'S1NB'
p468
I25
sS'S2LB'
p469
F20000.0
sS'S2NB'
p470
I25
sS'S1LB'
p471
F180.0
sS'S2UB'
p472
F45000.0
ssS'nerix_150128_1327.root'
p473
(dp474
S'S1UB'
p475
I3500
sS'S1NB'
p476
I80
sS'S2LB'
p477
I0
sS'S2NB'
p478
I80
sS'S1LB'
p479
I0
sS'S2UB'
p480
F700000.0
ssS'nerix_160217_0643.root'
p481
(dp482
S'S1UB'
p483
I1400
sS'S1NB'
p484
I50
sS'S2LB'
p485
I0
sS'S2NB'
p486
I50
sS'S1LB'
p487
I0
sS'S2UB'
p488
F400000.0
ssS'nerix_160112_1449.root'
p489
(dp490
S'S1UB'
p491
I3500
sS'S1NB'
p492
I80
sS'S2LB'
p493
I0
sS'S2NB'
p494
I80
sS'S1LB'
p495
I0
sS'S2UB'
p496
F1100000.0
ssS'nerix_151210_0930.root'
p497
(dp498
S'S1UB'
p499
F3000.0
sS'S1NB'
p500
I25
sS'S2LB'
p501
F500000.0
sS'S2NB'
p502
I25
sS'S1LB'
p503
F1500.0
sS'S2UB'
p504
F750000.0
ssS'nerix_151203_1438.root'
p505
(dp506
S'S1UB'
p507
I3500
sS'S1NB'
p508
I80
sS'S2LB'
p509
I0
sS'S2NB'
p510
I80
sS'S1LB'
p511
I0
sS'S2UB'
p512
F1100000.0
ssS'nerix_160404_1259.root'
p513
(dp514
S'S1UB'
p515
I3500
sS'S1NB'
p516
I80
sS'S2LB'
p517
I0
sS'S2NB'
p518
I80
sS'S1LB'
p519
I0
sS'S2UB'
p520
F700000.0
ssS'nerix_151209_1008.root'
p521
(dp522
S'S1UB'
p523
F1200.0
sS'S1NB'
p524
I25
sS'S2LB'
p525
F60000.0
sS'S2NB'
p526
I25
sS'S1LB'
p527
F600.0
sS'S2UB'
p528
F250000.0
ssS'nerix_160104_1342.root'
p529
(dp530
S'S1UB'
p531
I3500
sS'S1NB'
p532
I80
sS'S2LB'
p533
I0
sS'S2NB'
p534
I80
sS'S1LB'
p535
I0
sS'S2UB'
p536
F1100000.0
ssS'nerix_151117_1445.root'
p537
(dp538
S'S1UB'
p539
F350.0
sS'S1NB'
p540
I25
sS'S2LB'
p541
I0
sS'S2NB'
p542
I25
sS'S1LB'
p543
F100.0
sS'S2UB'
p544
F60000.0
ssS'nerix_141217_1041.root'
p545
(dp546
S'S1UB'
p547
I3500
sS'S1NB'
p548
I80
sS'S2LB'
p549
I0
sS'S2NB'
p550
I80
sS'S1LB'
p551
I0
sS'S2UB'
p552
F700000.0
ssS'nerix_151203_1221.root'
p553
(dp554
S'S1UB'
p555
I3500
sS'S1NB'
p556
I80
sS'S2LB'
p557
I0
sS'S2NB'
p558
I80
sS'S1LB'
p559
I0
sS'S2UB'
p560
F1100000.0
ssS'nerix_160127_1502.root'
p561
(dp562
S'S1UB'
p563
I3500
sS'S1NB'
p564
I80
sS'S2LB'
p565
I0
sS'S2NB'
p566
I80
sS'S1LB'
p567
I0
sS'S2UB'
p568
F1100000.0
ssS'nerix_160328_1738.root'
p569
(dp570
S'S1UB'
p571
I1400
sS'S1NB'
p572
I50
sS'S2LB'
p573
I0
sS'S2NB'
p574
I50
sS'S1LB'
p575
I0
sS'S2UB'
p576
F400000.0
ssS'nerix_160331_1205.root'
p577
(dp578
S'S1UB'
p579
I3500
sS'S1NB'
p580
I80
sS'S2LB'
p581
I0
sS'S2NB'
p582
I80
sS'S1LB'
p583
I0
sS'S2UB'
p584
F700000.0
ssS'nerix_140924_1803.root'
p585
(dp586
S'S1UB'
p587
I3500
sS'S1NB'
p588
I80
sS'S2LB'
p589
I0
sS'S2NB'
p590
I80
sS'S1LB'
p591
I0
sS'S2UB'
p592
F600000.0
ssS'nerix_151223_1317.root'
p593
(dp594
S'S1UB'
p595
I3500
sS'S1NB'
p596
I80
sS'S2LB'
p597
I0
sS'S2NB'
p598
I80
sS'S1LB'
p599
I0
sS'S2UB'
p600
F1100000.0
ssS'nerix_151203_1411.root'
p601
(dp602
S'S1UB'
p603
I3500
sS'S1NB'
p604
I80
sS'S2LB'
p605
I0
sS'S2NB'
p606
I80
sS'S1LB'
p607
I0
sS'S2UB'
p608
F1100000.0
ssS'nerix_151028_1140.root'
p609
(dp610
S'S1UB'
p611
F1700.0
sS'S1NB'
p612
I25
sS'S2LB'
p613
F10000.0
sS'S2NB'
p614
I25
sS'S1LB'
p615
F500.0
sS'S2UB'
p616
F80000.0
ssS'nerix_151119_1546.root'
p617
(dp618
S'S1UB'
p619
I3500
sS'S1NB'
p620
I80
sS'S2LB'
p621
I0
sS'S2NB'
p622
I80
sS'S1LB'
p623
I0
sS'S2UB'
p624
F1100000.0
ssS'nerix_151109_2204.root'
p625
(dp626
S'S1UB'
p627
I1400
sS'S1NB'
p628
I50
sS'S2LB'
p629
I0
sS'S2NB'
p630
I50
sS'S1LB'
p631
I0
sS'S2UB'
p632
F400000.0
ssS'nerix_160125_1327.root'
p633
(dp634
S'S1UB'
p635
I3500
sS'S1NB'
p636
I80
sS'S2LB'
p637
I0
sS'S2NB'
p638
I80
sS'S1LB'
p639
I0
sS'S2UB'
p640
F1100000.0
ssS'nerix_151026_1506.root'
p641
(dp642
S'S1UB'
p643
F1200.0
sS'S1NB'
p644
I25
sS'S2LB'
p645
F150000.0
sS'S2NB'
p646
I25
sS'S1LB'
p647
F400.0
sS'S2UB'
p648
F350000.0
ssS'nerix_160104_1528.root'
p649
(dp650
S'S1UB'
p651
I3500
sS'S1NB'
p652
I80
sS'S2LB'
p653
I0
sS'S2NB'
p654
I80
sS'S1LB'
p655
I0
sS'S2UB'
p656
F1100000.0
ssS'nerix_151006_1454.root'
p657
(dp658
S'S1UB'
p659
F450.0
sS'S1NB'
p660
I25
sS'S2LB'
p661
I0
sS'S2NB'
p662
I25
sS'S1LB'
p663
I0
sS'S2UB'
p664
F50000.0
ssS'nerix_151006_1703.root'
p665
(dp666
S'S1UB'
p667
F400.0
sS'S1NB'
p668
I25
sS'S2LB'
p669
F18000.0
sS'S2NB'
p670
I25
sS'S1LB'
p671
F180.0
sS'S2UB'
p672
F60000.0
ssS'nerix_151102_1355.root'
p673
(dp674
S'S1UB'
p675
F1100.0
sS'S1NB'
p676
I15
sS'S2LB'
p677
F150000.0
sS'S2NB'
p678
I15
sS'S1LB'
p679
F500.0
sS'S2UB'
p680
F300000.0
ssS'nerix_151201_1327.root'
p681
(dp682
S'S1UB'
p683
I3500
sS'S1NB'
p684
I80
sS'S2LB'
p685
I0
sS'S2NB'
p686
I80
sS'S1LB'
p687
I0
sS'S2UB'
p688
F1100000.0
ssS'nerix_160328_1629.root'
p689
(dp690
S'S1UB'
p691
I1400
sS'S1NB'
p692
I50
sS'S2LB'
p693
I0
sS'S2NB'
p694
I50
sS'S1LB'
p695
I0
sS'S2UB'
p696
F400000.0
ssS'nerix_151214_1244.root'
p697
(dp698
S'S1UB'
p699
I3500
sS'S1NB'
p700
I80
sS'S2LB'
p701
I0
sS'S2NB'
p702
I80
sS'S1LB'
p703
I0
sS'S2UB'
p704
F1100000.0
ssS'nerix_151026_1253.root'
p705
(dp706
S'S1UB'
p707
F1250.0
sS'S1NB'
p708
I25
sS'S2LB'
p709
F100000.0
sS'S2NB'
p710
I25
sS'S1LB'
p711
F600.0
sS'S2UB'
p712
F300000.0
ssS'nerix_151006_1637.root'
p713
(dp714
S'S1UB'
p715
F400.0
sS'S1NB'
p716
I25
sS'S2LB'
p717
I0
sS'S2NB'
p718
I25
sS'S1LB'
p719
F200.0
sS'S2UB'
p720
F70000.0
ssS'nerix_151216_1532.root'
p721
(dp722
S'S1UB'
p723
I1400
sS'S1NB'
p724
I50
sS'S2LB'
p725
I0
sS'S2NB'
p726
I50
sS'S1LB'
p727
I0
sS'S2UB'
p728
F400000.0
ssS'nerix_151110_0650.root'
p729
(dp730
S'S1UB'
p731
I1400
sS'S1NB'
p732
I50
sS'S2LB'
p733
I0
sS'S2NB'
p734
I50
sS'S1LB'
p735
I0
sS'S2UB'
p736
F400000.0
ssS'nerix_160204_1212.root'
p737
(dp738
S'S1UB'
p739
I3500
sS'S1NB'
p740
I80
sS'S2LB'
p741
I0
sS'S2NB'
p742
I80
sS'S1LB'
p743
I0
sS'S2UB'
p744
F1100000.0
ssS'nerix_151006_1316.root'
p745
(dp746
S'S1UB'
p747
F450.0
sS'S1NB'
p748
I25
sS'S2LB'
p749
F5000.0
sS'S2NB'
p750
I25
sS'S1LB'
p751
F100.0
sS'S2UB'
p752
F60000.0
ssS'nerix_160222_1640.root'
p753
(dp754
S'S1UB'
p755
I3500
sS'S1NB'
p756
I80
sS'S2LB'
p757
I0
sS'S2NB'
p758
I80
sS'S1LB'
p759
I0
sS'S2UB'
p760
F1100000.0
ssS'nerix_160201_2000.root'
p761
(dp762
S'S1UB'
p763
I1400
sS'S1NB'
p764
I50
sS'S2LB'
p765
I0
sS'S2NB'
p766
I50
sS'S1LB'
p767
I0
sS'S2UB'
p768
F400000.0
ssS'nerix_151019_1546.root'
p769
(dp770
S'S1UB'
p771
F1200.0
sS'S1NB'
p772
I25
sS'S2LB'
p773
F140000.0
sS'S2NB'
p774
I25
sS'S1LB'
p775
F600.0
sS'S2UB'
p776
F300000.0
ssS'nerix_150928_1516.root'
p777
(dp778
S'S1UB'
p779
F380.0
sS'S1NB'
p780
I25
sS'S2LB'
p781
F20000.0
sS'S2NB'
p782
I25
sS'S1LB'
p783
F180.0
sS'S2UB'
p784
F70000.0
ssS'nerix_151117_1307.root'
p785
(dp786
S'S1UB'
p787
F350.0
sS'S1NB'
p788
I10
sS'S2LB'
p789
I0
sS'S2NB'
p790
I10
sS'S1LB'
p791
F100.0
sS'S2UB'
p792
F35000.0
ssS'nerix_150914_1618.root'
p793
(dp794
S'S1UB'
p795
F400.0
sS'S1NB'
p796
I20
sS'S2LB'
p797
F12000.0
sS'S2NB'
p798
I20
sS'S1LB'
p799
F120.0
sS'S2UB'
p800
F40000.0
ssS'nerix_151119_1628.root'
p801
(dp802
S'S1UB'
p803
I3500
sS'S1NB'
p804
I80
sS'S2LB'
p805
I0
sS'S2NB'
p806
I80
sS'S1LB'
p807
I0
sS'S2UB'
p808
F1100000.0
ssS'nerix_151109_1727.root'
p809
(dp810
S'S1UB'
p811
I1400
sS'S1NB'
p812
I50
sS'S2LB'
p813
I0
sS'S2NB'
p814
I50
sS'S1LB'
p815
I0
sS'S2UB'
p816
F400000.0
ssS'nerix_151117_1403.root'
p817
(dp818
S'S1UB'
p819
F400.0
sS'S1NB'
p820
I10
sS'S2LB'
p821
I0
sS'S2NB'
p822
I10
sS'S1LB'
p823
F50.0
sS'S2UB'
p824
F50000.0
ssS'nerix_151026_1215.root'
p825
(dp826
S'S1UB'
p827
F1350.0
sS'S1NB'
p828
I25
sS'S2LB'
p829
F80000.0
sS'S2NB'
p830
I25
sS'S1LB'
p831
F700.0
sS'S2UB'
p832
F250000.0
ssS'nerix_150930_1456.root'
p833
(dp834
S'S1UB'
p835
F850.0
sS'S1NB'
p836
I25
sS'S2LB'
p837
F50000.0
sS'S2NB'
p838
I25
sS'S1LB'
p839
F400.0
sS'S2UB'
p840
F180000.0
ssS'nerix_160329_2050.root'
p841
(dp842
S'S1UB'
p843
I3500
sS'S1NB'
p844
I80
sS'S2LB'
p845
I0
sS'S2NB'
p846
I80
sS'S1LB'
p847
I0
sS'S2UB'
p848
F700000.0
ssS'nerix_150114_1407.root'
p849
(dp850
S'S1UB'
p851
I3500
sS'S1NB'
p852
I80
sS'S2LB'
p853
I0
sS'S2NB'
p854
I80
sS'S1LB'
p855
I0
sS'S2UB'
p856
F700000.0
ssS'nerix_151102_1154.root'
p857
(dp858
S'S1UB'
p859
F1300.0
sS'S1NB'
p860
I25
sS'S2LB'
p861
F100000.0
sS'S2NB'
p862
I25
sS'S1LB'
p863
F600.0
sS'S2UB'
p864
F300000.0
ssS'nerix_140930_1626.root'
p865
(dp866
S'S1UB'
p867
I3500
sS'S1NB'
p868
I80
sS'S2LB'
p869
I0
sS'S2NB'
p870
I80
sS'S1LB'
p871
I0
sS'S2UB'
p872
F600000.0
ssS'nerix_160216_1749.root'
p873
(dp874
S'S1UB'
p875
I1400
sS'S1NB'
p876
I50
sS'S2LB'
p877
I0
sS'S2NB'
p878
I50
sS'S1LB'
p879
I0
sS'S2UB'
p880
F400000.0
ssS'nerix_160204_1145.root'
p881
(dp882
S'S1UB'
p883
I3500
sS'S1NB'
p884
I80
sS'S2LB'
p885
I0
sS'S2NB'
p886
I80
sS'S1LB'
p887
I0
sS'S2UB'
p888
F1100000.0
ssS'nerix_151229_1143.root'
p889
(dp890
S'S1UB'
p891
I3500
sS'S1NB'
p892
I80
sS'S2LB'
p893
I0
sS'S2NB'
p894
I80
sS'S1LB'
p895
I0
sS'S2UB'
p896
F1100000.0
ssS'nerix_160113_0628.root'
p897
(dp898
S'S1UB'
p899
I1400
sS'S1NB'
p900
I50
sS'S2LB'
p901
I0
sS'S2NB'
p902
I50
sS'S1LB'
p903
I0
sS'S2UB'
p904
F400000.0
ssS'nerix_150902_1559.root'
p905
(dp906
S'S1UB'
p907
F360.0
sS'S1NB'
p908
I25
sS'S2LB'
p909
F16000.0
sS'S2NB'
p910
I25
sS'S1LB'
p911
F140.0
sS'S2UB'
p912
F36000.0
ssS'nerix_151109_1952.root'
p913
(dp914
S'S1UB'
p915
I1400
sS'S1NB'
p916
I50
sS'S2LB'
p917
I0
sS'S2NB'
p918
I50
sS'S1LB'
p919
I0
sS'S2UB'
p920
F400000.0
ssS'nerix_151006_1522.root'
p921
(dp922
S'S1UB'
p923
F450.0
sS'S1NB'
p924
I25
sS'S2LB'
p925
I0
sS'S2NB'
p926
I25
sS'S1LB'
p927
I0
sS'S2UB'
p928
F50000.0
ssS'nerix_160118_1120.root'
p929
(dp930
S'S1UB'
p931
I3500
sS'S1NB'
p932
I80
sS'S2LB'
p933
I0
sS'S2NB'
p934
I80
sS'S1LB'
p935
I0
sS'S2UB'
p936
F1100000.0
ssS'nerix_151203_1549.root'
p937
(dp938
S'S1UB'
p939
I3500
sS'S1NB'
p940
I80
sS'S2LB'
p941
I0
sS'S2NB'
p942
I80
sS'S1LB'
p943
I0
sS'S2UB'
p944
F1100000.0
ssS'nerix_160208_0941.root'
p945
(dp946
S'S1UB'
p947
I3500
sS'S1NB'
p948
I80
sS'S2LB'
p949
I0
sS'S2NB'
p950
I80
sS'S1LB'
p951
I0
sS'S2UB'
p952
F1100000.0
ssS'nerix_151210_1341.root'
p953
(dp954
S'S1UB'
p955
F4000.0
sS'S1NB'
p956
I25
sS'S2LB'
p957
F600000.0
sS'S2NB'
p958
I25
sS'S1LB'
p959
F2200.0
sS'S2UB'
p960
F1050000.0
ssS'nerix_160323_1323.root'
p961
(dp962
S'S1UB'
p963
I3500
sS'S1NB'
p964
I80
sS'S2LB'
p965
I0
sS'S2NB'
p966
I80
sS'S1LB'
p967
I0
sS'S2UB'
p968
F700000.0
ssS'nerix_160125_1232.root'
p969
(dp970
S'S1UB'
p971
I3500
sS'S1NB'
p972
I80
sS'S2LB'
p973
I0
sS'S2NB'
p974
I80
sS'S1LB'
p975
I0
sS'S2UB'
p976
F1100000.0
ssS'nerix_160127_1556.root'
p977
(dp978
S'S1UB'
p979
I3500
sS'S1NB'
p980
I80
sS'S2LB'
p981
I0
sS'S2NB'
p982
I80
sS'S1LB'
p983
I0
sS'S2UB'
p984
F1100000.0
ssS'nerix_160125_1550.root'
p985
(dp986
S'S1UB'
p987
I3500
sS'S1NB'
p988
I80
sS'S2LB'
p989
I0
sS'S2NB'
p990
I80
sS'S1LB'
p991
I0
sS'S2UB'
p992
F1100000.0
ssS'nerix_160331_1031.root'
p993
(dp994
S'S1UB'
p995
I3500
sS'S1NB'
p996
I80
sS'S2LB'
p997
I0
sS'S2NB'
p998
I80
sS'S1LB'
p999
I0
sS'S2UB'
p1000
F700000.0
ssS'nerix_140917_1234.root'
p1001
(dp1002
S'S1UB'
p1003
I3500
sS'S1NB'
p1004
I80
sS'S2LB'
p1005
I0
sS'S2NB'
p1006
I80
sS'S1LB'
p1007
I0
sS'S2UB'
p1008
F600000.0
ssS'nerix_160222_1325.root'
p1009
(dp1010
S'S1UB'
p1011
I3500
sS'S1NB'
p1012
I80
sS'S2LB'
p1013
I0
sS'S2NB'
p1014
I80
sS'S1LB'
p1015
I0
sS'S2UB'
p1016
F1100000.0
ssS'nerix_160126_1055.root'
p1017
(dp1018
S'S1UB'
p1019
I1400
sS'S1NB'
p1020
I50
sS'S2LB'
p1021
I0
sS'S2NB'
p1022
I50
sS'S1LB'
p1023
I0
sS'S2UB'
p1024
F400000.0
ssS'nerix_160112_1919.root'
p1025
(dp1026
S'S1UB'
p1027
I1400
sS'S1NB'
p1028
I50
sS'S2LB'
p1029
I0
sS'S2NB'
p1030
I50
sS'S1LB'
p1031
I0
sS'S2UB'
p1032
F400000.0
ssS'nerix_141006_0951.root'
p1033
(dp1034
S'S1UB'
p1035
I3500
sS'S1NB'
p1036
I80
sS'S2LB'
p1037
I0
sS'S2NB'
p1038
I80
sS'S1LB'
p1039
I0
sS'S2UB'
p1040
F600000.0
ssS'nerix_151026_1421.root'
p1041
(dp1042
S'S1UB'
p1043
F1200.0
sS'S1NB'
p1044
I25
sS'S2LB'
p1045
F140000.0
sS'S2NB'
p1046
I25
sS'S1LB'
p1047
F450.0
sS'S2UB'
p1048
F350000.0
ssS'nerix_151201_1519.root'
p1049
(dp1050
S'S1UB'
p1051
F300.0
sS'S1NB'
p1052
I25
sS'S2LB'
p1053
F5000.0
sS'S2NB'
p1054
I25
sS'S1LB'
p1055
F100.0
sS'S2UB'
p1056
F30000.0
ssS'nerix_151216_1251.root'
p1057
(dp1058
S'S1UB'
p1059
I1400
sS'S1NB'
p1060
I50
sS'S2LB'
p1061
I0
sS'S2NB'
p1062
I50
sS'S1LB'
p1063
I0
sS'S2UB'
p1064
F400000.0
ssS'nerix_160229_1814.root'
p1065
(dp1066
S'S1UB'
p1067
I1400
sS'S1NB'
p1068
I50
sS'S2LB'
p1069
I0
sS'S2NB'
p1070
I50
sS'S1LB'
p1071
I0
sS'S2UB'
p1072
F400000.0
ssS'nerix_160328_1022.root'
p1073
(dp1074
S'S1UB'
p1075
I3500
sS'S1NB'
p1076
I80
sS'S2LB'
p1077
I0
sS'S2NB'
p1078
I80
sS'S1LB'
p1079
I0
sS'S2UB'
p1080
F700000.0
ssS'nerix_151210_1531.root'
p1081
(dp1082
S'S1UB'
p1083
F7500.0
sS'S1NB'
p1084
I25
sS'S2LB'
p1085
F1200000.0
sS'S2NB'
p1086
I25
sS'S1LB'
p1087
F4000.0
sS'S2UB'
p1088
F1900000.0
ssS'nerix_160405_0034.root'
p1089
(dp1090
S'S1UB'
p1091
I1400
sS'S1NB'
p1092
I50
sS'S2LB'
p1093
I0
sS'S2NB'
p1094
I50
sS'S1LB'
p1095
I0
sS'S2UB'
p1096
F400000.0
ssS'nerix_160216_1530.root'
p1097
(dp1098
S'S1UB'
p1099
I3500
sS'S1NB'
p1100
I80
sS'S2LB'
p1101
I0
sS'S2NB'
p1102
I80
sS'S1LB'
p1103
I0
sS'S2UB'
p1104
F1100000.0
ssS'nerix_150106_1234.root'
p1105
(dp1106
S'S1UB'
p1107
I3500
sS'S1NB'
p1108
I80
sS'S2LB'
p1109
I0
sS'S2NB'
p1110
I80
sS'S1LB'
p1111
I0
sS'S2UB'
p1112
F700000.0
ssS'nerix_160126_0946.root'
p1113
(dp1114
S'S1UB'
p1115
I1400
sS'S1NB'
p1116
I50
sS'S2LB'
p1117
I0
sS'S2NB'
p1118
I50
sS'S1LB'
p1119
I0
sS'S2UB'
p1120
F400000.0
ssS'nerix_151229_1054.root'
p1121
(dp1122
S'S1UB'
p1123
I3500
sS'S1NB'
p1124
I80
sS'S2LB'
p1125
I0
sS'S2NB'
p1126
I80
sS'S1LB'
p1127
I0
sS'S2UB'
p1128
F1100000.0
ssS'nerix_160104_2200.root'
p1129
(dp1130
S'S1UB'
p1131
I1400
sS'S1NB'
p1132
I50
sS'S2LB'
p1133
I0
sS'S2NB'
p1134
I50
sS'S1LB'
p1135
I0
sS'S2UB'
p1136
F400000.0
ssS'nerix_141203_1506.root'
p1137
(dp1138
S'S1UB'
p1139
I3500
sS'S1NB'
p1140
I80
sS'S2LB'
p1141
I0
sS'S2NB'
p1142
I80
sS'S1LB'
p1143
I0
sS'S2UB'
p1144
F800000.0
ssS'nerix_150917_1039.root'
p1145
(dp1146
S'S1UB'
p1147
F400.0
sS'S1NB'
p1148
I25
sS'S2LB'
p1149
F20000.0
sS'S2NB'
p1150
I25
sS'S1LB'
p1151
F120.0
sS'S2UB'
p1152
F46000.0
ssS'nerix_160104_1708.root'
p1153
(dp1154
S'S1UB'
p1155
I1400
sS'S1NB'
p1156
I50
sS'S2LB'
p1157
I0
sS'S2NB'
p1158
I50
sS'S1LB'
p1159
I0
sS'S2UB'
p1160
F400000.0
ssS'nerix_151006_1612.root'
p1161
(dp1162
S'S1UB'
p1163
F400.0
sS'S1NB'
p1164
I25
sS'S2LB'
p1165
I0
sS'S2NB'
p1166
I25
sS'S1LB'
p1167
F150.0
sS'S2UB'
p1168
F60000.0
ssS'nerix_150914_1450.root'
p1169
(dp1170
S'S1UB'
p1171
F400.0
sS'S1NB'
p1172
I25
sS'S2LB'
p1173
F12000.0
sS'S2NB'
p1174
I25
sS'S1LB'
p1175
F120.0
sS'S2UB'
p1176
F35000.0
ssS'nerix_160222_2200.root'
p1177
(dp1178
S'S1UB'
p1179
I1400
sS'S1NB'
p1180
I50
sS'S2LB'
p1181
I0
sS'S2NB'
p1182
I50
sS'S1LB'
p1183
I0
sS'S2UB'
p1184
F400000.0
ssS'nerix_160204_1404.root'
p1185
(dp1186
S'S1UB'
p1187
I3500
sS'S1NB'
p1188
I80
sS'S2LB'
p1189
I0
sS'S2NB'
p1190
I80
sS'S1LB'
p1191
I0
sS'S2UB'
p1192
F1100000.0
ssS'nerix_160112_1518.root'
p1193
(dp1194
S'S1UB'
p1195
I3500
sS'S1NB'
p1196
I80
sS'S2LB'
p1197
I0
sS'S2NB'
p1198
I80
sS'S1LB'
p1199
I0
sS'S2UB'
p1200
F1100000.0
ssS'nerix_160404_1204.root'
p1201
(dp1202
S'S1UB'
p1203
I3500
sS'S1NB'
p1204
I80
sS'S2LB'
p1205
I0
sS'S2NB'
p1206
I80
sS'S1LB'
p1207
I0
sS'S2UB'
p1208
F700000.0
ssS'nerix_140924_1007.root'
p1209
(dp1210
S'S1UB'
p1211
I3500
sS'S1NB'
p1212
I80
sS'S2LB'
p1213
I0
sS'S2NB'
p1214
I80
sS'S1LB'
p1215
I0
sS'S2UB'
p1216
F600000.0
ssS'nerix_160323_1539.root'
p1217
(dp1218
S'S1UB'
p1219
I3500
sS'S1NB'
p1220
I80
sS'S2LB'
p1221
I0
sS'S2NB'
p1222
I80
sS'S1LB'
p1223
I0
sS'S2UB'
p1224
F700000.0
ssS'nerix_160208_1428.root'
p1225
(dp1226
S'S1UB'
p1227
I3500
sS'S1NB'
p1228
I80
sS'S2LB'
p1229
I0
sS'S2NB'
p1230
I80
sS'S1LB'
p1231
I0
sS'S2UB'
p1232
F1100000.0
ssS'nerix_150928_1424.root'
p1233
(dp1234
S'S1UB'
p1235
F300.0
sS'S1NB'
p1236
I25
sS'S2LB'
p1237
F20000.0
sS'S2NB'
p1238
I25
sS'S1LB'
p1239
F100.0
sS'S2UB'
p1240
F90000.0
ssS'nerix_160204_1438.root'
p1241
(dp1242
S'S1UB'
p1243
I3500
sS'S1NB'
p1244
I80
sS'S2LB'
p1245
I0
sS'S2NB'
p1246
I80
sS'S1LB'
p1247
I0
sS'S2UB'
p1248
F1100000.0
ssS'nerix_151222_1349.root'
p1249
(dp1250
S'S1UB'
p1251
I3500
sS'S1NB'
p1252
I80
sS'S2LB'
p1253
I0
sS'S2NB'
p1254
I80
sS'S1LB'
p1255
I0
sS'S2UB'
p1256
F1100000.0
ssS'nerix_150928_1150.root'
p1257
(dp1258
S'S1UB'
p1259
F430.0
sS'S1NB'
p1260
I25
sS'S2LB'
p1261
F10000.0
sS'S2NB'
p1262
I25
sS'S1LB'
p1263
F180.0
sS'S2UB'
p1264
F60000.0
ssS'nerix_160204_1310.root'
p1265
(dp1266
S'S1UB'
p1267
I3500
sS'S1NB'
p1268
I80
sS'S2LB'
p1269
I0
sS'S2NB'
p1270
I80
sS'S1LB'
p1271
I0
sS'S2UB'
p1272
F1100000.0
ssS'nerix_160331_1104.root'
p1273
(dp1274
S'S1UB'
p1275
I3500
sS'S1NB'
p1276
I80
sS'S2LB'
p1277
I0
sS'S2NB'
p1278
I80
sS'S1LB'
p1279
I0
sS'S2UB'
p1280
F700000.0
ssS'nerix_160404_1350.root'
p1281
(dp1282
S'S1UB'
p1283
I3500
sS'S1NB'
p1284
I80
sS'S2LB'
p1285
I0
sS'S2NB'
p1286
I80
sS'S1LB'
p1287
I0
sS'S2UB'
p1288
F700000.0
ssS'nerix_160202_1037.root'
p1289
(dp1290
S'S1UB'
p1291
I1400
sS'S1NB'
p1292
I50
sS'S2LB'
p1293
I0
sS'S2NB'
p1294
I50
sS'S1LB'
p1295
I0
sS'S2UB'
p1296
F400000.0
ssS'nerix_160229_1631.root'
p1297
(dp1298
S'S1UB'
p1299
I3500
sS'S1NB'
p1300
I80
sS'S2LB'
p1301
I0
sS'S2NB'
p1302
I80
sS'S1LB'
p1303
I0
sS'S2UB'
p1304
F1100000.0
ssS'nerix_151201_1306.root'
p1305
(dp1306
S'S1UB'
p1307
I3500
sS'S1NB'
p1308
I80
sS'S2LB'
p1309
I0
sS'S2NB'
p1310
I80
sS'S1LB'
p1311
I0
sS'S2UB'
p1312
F1100000.0
ssS'nerix_151110_0213.root'
p1313
(dp1314
S'S1UB'
p1315
I1400
sS'S1NB'
p1316
I50
sS'S2LB'
p1317
I0
sS'S2NB'
p1318
I50
sS'S1LB'
p1319
I0
sS'S2UB'
p1320
F400000.0
ssS'nerix_150902_1620.root'
p1321
(dp1322
S'S1UB'
p1323
F500.0
sS'S1NB'
p1324
I25
sS'S2LB'
p1325
F22000.0
sS'S2NB'
p1326
I25
sS'S1LB'
p1327
F200.0
sS'S2UB'
p1328
F50000.0
ssS'nerix_160404_1802.root'
p1329
(dp1330
S'S1UB'
p1331
I1400
sS'S1NB'
p1332
I50
sS'S2LB'
p1333
I0
sS'S2NB'
p1334
I50
sS'S1LB'
p1335
I0
sS'S2UB'
p1336
F400000.0
ssS'nerix_151124_2303.root'
p1337
(dp1338
S'S1UB'
p1339
I1400
sS'S1NB'
p1340
I50
sS'S2LB'
p1341
I0
sS'S2NB'
p1342
I50
sS'S1LB'
p1343
I0
sS'S2UB'
p1344
F400000.0
ssS'nerix_151029_1026.root'
p1345
(dp1346
S'S1UB'
p1347
F450.0
sS'S1NB'
p1348
I15
sS'S2LB'
p1349
F10000.0
sS'S2NB'
p1350
I15
sS'S1LB'
p1351
F100.0
sS'S2UB'
p1352
F50000.0
ssS'nerix_151222_1253.root'
p1353
(dp1354
S'S1UB'
p1355
I3500
sS'S1NB'
p1356
I80
sS'S2LB'
p1357
I0
sS'S2NB'
p1358
I80
sS'S1LB'
p1359
I0
sS'S2UB'
p1360
F1100000.0
ssS'nerix_151203_1156.root'
p1361
(dp1362
S'S1UB'
p1363
I3500
sS'S1NB'
p1364
I80
sS'S2LB'
p1365
I0
sS'S2NB'
p1366
I80
sS'S1LB'
p1367
I0
sS'S2UB'
p1368
F1100000.0
ssS'nerix_150106_1404.root'
p1369
(dp1370
S'S1UB'
p1371
I3500
sS'S1NB'
p1372
I80
sS'S2LB'
p1373
I0
sS'S2NB'
p1374
I80
sS'S1LB'
p1375
I0
sS'S2UB'
p1376
F700000.0
ssS'nerix_140930_1029.root'
p1377
(dp1378
S'S1UB'
p1379
I3500
sS'S1NB'
p1380
I80
sS'S2LB'
p1381
I0
sS'S2NB'
p1382
I80
sS'S1LB'
p1383
I0
sS'S2UB'
p1384
F600000.0
ssS'nerix_160229_1223.root'
p1385
(dp1386
S'S1UB'
p1387
I3500
sS'S1NB'
p1388
I80
sS'S2LB'
p1389
I0
sS'S2NB'
p1390
I80
sS'S1LB'
p1391
I0
sS'S2UB'
p1392
F1100000.0
ssS'nerix_160323_1358.root'
p1393
(dp1394
S'S1UB'
p1395
I3500
sS'S1NB'
p1396
I80
sS'S2LB'
p1397
I0
sS'S2NB'
p1398
I80
sS'S1LB'
p1399
I0
sS'S2UB'
p1400
F700000.0
ssS'nerix_151123_1522.root'
p1401
(dp1402
S'S1UB'
p1403
F850.0
sS'S1NB'
p1404
I10
sS'S2LB'
p1405
F150000.0
sS'S2NB'
p1406
I10
sS'S1LB'
p1407
F350.0
sS'S2UB'
p1408
F280000.0
ssS'nerix_151004_1458.root'
p1409
(dp1410
S'S1UB'
p1411
F450.0
sS'S1NB'
p1412
I25
sS'S2LB'
p1413
I0
sS'S2NB'
p1414
I25
sS'S1LB'
p1415
F150.0
sS'S2UB'
p1416
F50000.0
ssS'nerix_151002_1044.root'
p1417
(dp1418
S'S1UB'
p1419
F900.0
sS'S1NB'
p1420
I25
sS'S2LB'
p1421
F40000.0
sS'S2NB'
p1422
I25
sS'S1LB'
p1423
F300.0
sS'S2UB'
p1424
F250000.0
ssS'nerix_150916_1201.root'
p1425
(dp1426
S'S1UB'
p1427
F400.0
sS'S1NB'
p1428
I25
sS'S2LB'
p1429
F10000.0
sS'S2NB'
p1430
I25
sS'S1LB'
p1431
F180.0
sS'S2UB'
p1432
F34000.0
ssS'nerix_160208_1402.root'
p1433
(dp1434
S'S1UB'
p1435
I3500
sS'S1NB'
p1436
I80
sS'S2LB'
p1437
I0
sS'S2NB'
p1438
I80
sS'S1LB'
p1439
I0
sS'S2UB'
p1440
F1100000.0
ssS'nerix_160112_1357.root'
p1441
(dp1442
S'S1UB'
p1443
I3500
sS'S1NB'
p1444
I80
sS'S2LB'
p1445
I0
sS'S2NB'
p1446
I80
sS'S1LB'
p1447
I0
sS'S2UB'
p1448
F1100000.0
ssS'nerix_151019_1502.root'
p1449
(dp1450
S'S1UB'
p1451
F1300.0
sS'S1NB'
p1452
I25
sS'S2LB'
p1453
F130000.0
sS'S2NB'
p1454
I25
sS'S1LB'
p1455
F650.0
sS'S2UB'
p1456
F280000.0
ssS'nerix_160328_1156.root'
p1457
(dp1458
S'S1UB'
p1459
I3500
sS'S1NB'
p1460
I80
sS'S2LB'
p1461
I0
sS'S2NB'
p1462
I80
sS'S1LB'
p1463
I0
sS'S2UB'
p1464
F700000.0
ssS'nerix_160331_1131.root'
p1465
(dp1466
S'S1UB'
p1467
I3500
sS'S1NB'
p1468
I80
sS'S2LB'
p1469
I0
sS'S2NB'
p1470
I80
sS'S1LB'
p1471
I0
sS'S2UB'
p1472
F700000.0
ssS'nerix_151002_1517.root'
p1473
(dp1474
S'S1UB'
p1475
F1000.0
sS'S1NB'
p1476
I25
sS'S2LB'
p1477
F20000.0
sS'S2NB'
p1478
I25
sS'S1LB'
p1479
F250.0
sS'S2UB'
p1480
F200000.0
ssS'nerix_151004_1525.root'
p1481
(dp1482
S'S1UB'
p1483
F400.0
sS'S1NB'
p1484
I25
sS'S2LB'
p1485
F10000.0
sS'S2NB'
p1486
I25
sS'S1LB'
p1487
F150.0
sS'S2UB'
p1488
F60000.0
ssS'nerix_160118_1502.root'
p1489
(dp1490
S'S1UB'
p1491
I3500
sS'S1NB'
p1492
I80
sS'S2LB'
p1493
I0
sS'S2NB'
p1494
I80
sS'S1LB'
p1495
I0
sS'S2UB'
p1496
F1100000.0
ssS'nerix_151210_1130.root'
p1497
(dp1498
S'S1UB'
p1499
F2300.0
sS'S1NB'
p1500
I25
sS'S2LB'
p1501
F300000.0
sS'S2NB'
p1502
I25
sS'S1LB'
p1503
F1100.0
sS'S2UB'
p1504
F550000.0
ssS'nerix_151123_1445.root'
p1505
(dp1506
S'S1UB'
p1507
F900.0
sS'S1NB'
p1508
I10
sS'S2LB'
p1509
F100000.0
sS'S2NB'
p1510
I10
sS'S1LB'
p1511
F400.0
sS'S2UB'
p1512
F300000.0
ssS'nerix_151203_1138.root'
p1513
(dp1514
S'S1UB'
p1515
I3500
sS'S1NB'
p1516
I80
sS'S2LB'
p1517
I0
sS'S2NB'
p1518
I80
sS'S1LB'
p1519
I0
sS'S2UB'
p1520
F1100000.0
ssS'nerix_160204_1053.root'
p1521
(dp1522
S'S1UB'
p1523
I3500
sS'S1NB'
p1524
I80
sS'S2LB'
p1525
I0
sS'S2NB'
p1526
I80
sS'S1LB'
p1527
I0
sS'S2UB'
p1528
F1100000.0
ssS'nerix_160112_2151.root'
p1529
(dp1530
S'S1UB'
p1531
I1400
sS'S1NB'
p1532
I50
sS'S2LB'
p1533
I0
sS'S2NB'
p1534
I50
sS'S1LB'
p1535
I0
sS'S2UB'
p1536
F400000.0
ssS'nerix_151222_1200.root'
p1537
(dp1538
S'S1UB'
p1539
I3500
sS'S1NB'
p1540
I80
sS'S2LB'
p1541
I0
sS'S2NB'
p1542
I80
sS'S1LB'
p1543
I0
sS'S2UB'
p1544
F1100000.0
ssS'nerix_151102_1307.root'
p1545
(dp1546
S'S1UB'
p1547
F1200.0
sS'S1NB'
p1548
I25
sS'S2LB'
p1549
F100000.0
sS'S2NB'
p1550
I25
sS'S1LB'
p1551
F400.0
sS'S2UB'
p1552
F300000.0
ssS'nerix_141014_1024.root'
p1553
(dp1554
S'S1UB'
p1555
I3500
sS'S1NB'
p1556
I80
sS'S2LB'
p1557
I0
sS'S2NB'
p1558
I80
sS'S1LB'
p1559
I0
sS'S2UB'
p1560
F600000.0
ssS'nerix_160222_1851.root'
p1561
(dp1562
S'S1UB'
p1563
I1400
sS'S1NB'
p1564
I50
sS'S2LB'
p1565
I0
sS'S2NB'
p1566
I50
sS'S1LB'
p1567
I0
sS'S2UB'
p1568
F400000.0
ssS'nerix_160222_1545.root'
p1569
(dp1570
S'S1UB'
p1571
I3500
sS'S1NB'
p1572
I80
sS'S2LB'
p1573
I0
sS'S2NB'
p1574
I80
sS'S1LB'
p1575
I0
sS'S2UB'
p1576
F1100000.0
ssS'nerix_151228_1544.root'
p1577
(dp1578
S'S1UB'
p1579
I3500
sS'S1NB'
p1580
I80
sS'S2LB'
p1581
I0
sS'S2NB'
p1582
I80
sS'S1LB'
p1583
I0
sS'S2UB'
p1584
F1100000.0
ssS'nerix_151123_1417.root'
p1585
(dp1586
S'S1UB'
p1587
F950.0
sS'S1NB'
p1588
I10
sS'S2LB'
p1589
F100000.0
sS'S2NB'
p1590
I10
sS'S1LB'
p1591
F400.0
sS'S2UB'
p1592
F250000.0
ssS'nerix_160112_1551.root'
p1593
(dp1594
S'S1UB'
p1595
I1400
sS'S1NB'
p1596
I50
sS'S2LB'
p1597
I0
sS'S2NB'
p1598
I50
sS'S1LB'
p1599
I0
sS'S2UB'
p1600
F400000.0
ssS'nerix_160104_1208.root'
p1601
(dp1602
S'S1UB'
p1603
I3500
sS'S1NB'
p1604
I80
sS'S2LB'
p1605
I0
sS'S2NB'
p1606
I80
sS'S1LB'
p1607
I0
sS'S2UB'
p1608
F1100000.0
ssS'nerix_160229_1605.root'
p1609
(dp1610
S'S1UB'
p1611
I3500
sS'S1NB'
p1612
I80
sS'S2LB'
p1613
I0
sS'S2NB'
p1614
I80
sS'S1LB'
p1615
I0
sS'S2UB'
p1616
F1100000.0
ssS'nerix_160208_1709.root'
p1617
(dp1618
S'S1UB'
p1619
I1400
sS'S1NB'
p1620
I50
sS'S2LB'
p1621
I0
sS'S2NB'
p1622
I50
sS'S1LB'
p1623
I0
sS'S2UB'
p1624
F400000.0
ssS'nerix_150128_1454.root'
p1625
(dp1626
S'S1UB'
p1627
I3500
sS'S1NB'
p1628
I80
sS'S2LB'
p1629
I0
sS'S2NB'
p1630
I80
sS'S1LB'
p1631
I0
sS'S2UB'
p1632
F700000.0
ssS'nerix_160222_1613.root'
p1633
(dp1634
S'S1UB'
p1635
I3500
sS'S1NB'
p1636
I80
sS'S2LB'
p1637
I0
sS'S2NB'
p1638
I80
sS'S1LB'
p1639
I0
sS'S2UB'
p1640
F1100000.0
ssS'nerix_150930_1233.root'
p1641
(dp1642
S'S1UB'
p1643
F625.0
sS'S1NB'
p1644
I25
sS'S2LB'
p1645
F80000.0
sS'S2NB'
p1646
I25
sS'S1LB'
p1647
F250.0
sS'S2UB'
p1648
F230000.0
ssS'nerix_160118_1241.root'
p1649
(dp1650
S'S1UB'
p1651
I3500
sS'S1NB'
p1652
I80
sS'S2LB'
p1653
I0
sS'S2NB'
p1654
I80
sS'S1LB'
p1655
I0
sS'S2UB'
p1656
F1100000.0
ssS'nerix_160404_1555.root'
p1657
(dp1658
S'S1UB'
p1659
I3500
sS'S1NB'
p1660
I80
sS'S2LB'
p1661
I0
sS'S2NB'
p1662
I80
sS'S1LB'
p1663
I0
sS'S2UB'
p1664
F700000.0
ssS'nerix_160216_2012.root'
p1665
(dp1666
S'S1UB'
p1667
I1400
sS'S1NB'
p1668
I50
sS'S2LB'
p1669
I0
sS'S2NB'
p1670
I50
sS'S1LB'
p1671
I0
sS'S2UB'
p1672
F400000.0
ssS'nerix_151207_1427.root'
p1673
(dp1674
S'S1UB'
p1675
I3500
sS'S1NB'
p1676
I80
sS'S2LB'
p1677
I0
sS'S2NB'
p1678
I80
sS'S1LB'
p1679
I0
sS'S2UB'
p1680
F1100000.0
ssS'nerix_150914_1346.root'
p1681
(dp1682
S'S1UB'
p1683
F400.0
sS'S1NB'
p1684
I15
sS'S2LB'
p1685
F8000.0
sS'S2NB'
p1686
I15
sS'S1LB'
p1687
F120.0
sS'S2UB'
p1688
F30000.0
ssS'nerix_160222_1518.root'
p1689
(dp1690
S'S1UB'
p1691
I3500
sS'S1NB'
p1692
I80
sS'S2LB'
p1693
I0
sS'S2NB'
p1694
I80
sS'S1LB'
p1695
I0
sS'S2UB'
p1696
F1100000.0
ssS'nerix_160222_1254.root'
p1697
(dp1698
S'S1UB'
p1699
I3500
sS'S1NB'
p1700
I80
sS'S2LB'
p1701
I0
sS'S2NB'
p1702
I80
sS'S1LB'
p1703
I0
sS'S2UB'
p1704
F1100000.0
ssS'nerix_151201_1232.root'
p1705
(dp1706
S'S1UB'
p1707
I3500
sS'S1NB'
p1708
I80
sS'S2LB'
p1709
I0
sS'S2NB'
p1710
I80
sS'S1LB'
p1711
I0
sS'S2UB'
p1712
F1100000.0
ssS'nerix_160229_1504.root'
p1713
(dp1714
S'S1UB'
p1715
I3500
sS'S1NB'
p1716
I80
sS'S2LB'
p1717
I0
sS'S2NB'
p1718
I80
sS'S1LB'
p1719
I0
sS'S2UB'
p1720
F1100000.0
ssS'nerix_151211_0926.root'
p1721
(dp1722
S'S1UB'
p1723
F1150.0
sS'S1NB'
p1724
I25
sS'S2LB'
p1725
F150000.0
sS'S2NB'
p1726
I25
sS'S1LB'
p1727
F600.0
sS'S2UB'
p1728
F250000.0
ssS'nerix_150916_1559.root'
p1729
(dp1730
S'S1UB'
p1731
F420.0
sS'S1NB'
p1732
I25
sS'S2LB'
p1733
F14000.0
sS'S2NB'
p1734
I25
sS'S1LB'
p1735
F160.0
sS'S2UB'
p1736
F40000.0
ssS'nerix_160216_1458.root'
p1737
(dp1738
S'S1UB'
p1739
I3500
sS'S1NB'
p1740
I80
sS'S2LB'
p1741
I0
sS'S2NB'
p1742
I80
sS'S1LB'
p1743
I0
sS'S2UB'
p1744
F1100000.0
ssS'nerix_150902_1537.root'
p1745
(dp1746
S'S1UB'
p1747
F320.0
sS'S1NB'
p1748
I25
sS'S2LB'
p1749
F14000.0
sS'S2NB'
p1750
I25
sS'S1LB'
p1751
F120.0
sS'S2UB'
p1752
F32000.0
ssS'nerix_160216_1623.root'
p1753
(dp1754
S'S1UB'
p1755
I3500
sS'S1NB'
p1756
I80
sS'S2LB'
p1757
I0
sS'S2NB'
p1758
I80
sS'S1LB'
p1759
I0
sS'S2UB'
p1760
F1100000.0
ssS'nerix_160331_1232.root'
p1761
(dp1762
S'S1UB'
p1763
I3500
sS'S1NB'
p1764
I80
sS'S2LB'
p1765
I0
sS'S2NB'
p1766
I80
sS'S1LB'
p1767
I0
sS'S2UB'
p1768
F700000.0
ssS'nerix_151006_1235.root'
p1769
(dp1770
S'S1UB'
p1771
F450.0
sS'S1NB'
p1772
I25
sS'S2LB'
p1773
I0
sS'S2NB'
p1774
I25
sS'S1LB'
p1775
F100.0
sS'S2UB'
p1776
F60000.0
ssS'nerix_150914_1416.root'
p1777
(dp1778
S'S1UB'
p1779
F400.0
sS'S1NB'
p1780
I25
sS'S2LB'
p1781
F10000.0
sS'S2NB'
p1782
I25
sS'S1LB'
p1783
F120.0
sS'S2UB'
p1784
F36000.0
ssS'nerix_160126_1201.root'
p1785
(dp1786
S'S1UB'
p1787
I1400
sS'S1NB'
p1788
I50
sS'S2LB'
p1789
I0
sS'S2NB'
p1790
I50
sS'S1LB'
p1791
I0
sS'S2UB'
p1792
F400000.0
ssS'nerix_150930_1708.root'
p1793
(dp1794
S'S1UB'
p1795
F800.0
sS'S1NB'
p1796
I25
sS'S2LB'
p1797
F50000.0
sS'S2NB'
p1798
I25
sS'S1LB'
p1799
F350.0
sS'S2UB'
p1800
F200000.0
ssS'nerix_160222_1353.root'
p1801
(dp1802
S'S1UB'
p1803
I3500
sS'S1NB'
p1804
I80
sS'S2LB'
p1805
I0
sS'S2NB'
p1806
I80
sS'S1LB'
p1807
I0
sS'S2UB'
p1808
F1100000.0
ssS'nerix_160328_1125.root'
p1809
(dp1810
S'S1UB'
p1811
I3500
sS'S1NB'
p1812
I80
sS'S2LB'
p1813
I0
sS'S2NB'
p1814
I80
sS'S1LB'
p1815
I0
sS'S2UB'
p1816
F700000.0
ssS'nerix_150915_1502.root'
p1817
(dp1818
S'S1UB'
p1819
F400.0
sS'S1NB'
p1820
I20
sS'S2LB'
p1821
F20000.0
sS'S2NB'
p1822
I20
sS'S1LB'
p1823
F100.0
sS'S2UB'
p1824
F40000.0
ssS'nerix_140930_1127.root'
p1825
(dp1826
S'S1UB'
p1827
I3500
sS'S1NB'
p1828
I80
sS'S2LB'
p1829
I0
sS'S2NB'
p1830
I80
sS'S1LB'
p1831
I0
sS'S2UB'
p1832
F600000.0
ssS'nerix_150106_1100.root'
p1833
(dp1834
S'S1UB'
p1835
I3500
sS'S1NB'
p1836
I80
sS'S2LB'
p1837
I0
sS'S2NB'
p1838
I80
sS'S1LB'
p1839
I0
sS'S2UB'
p1840
F700000.0
ssS'nerix_160201_2312.root'
p1841
(dp1842
S'S1UB'
p1843
I1400
sS'S1NB'
p1844
I50
sS'S2LB'
p1845
I0
sS'S2NB'
p1846
I50
sS'S1LB'
p1847
I0
sS'S2UB'
p1848
F400000.0
ssS'nerix_160229_1316.root'
p1849
(dp1850
S'S1UB'
p1851
I3500
sS'S1NB'
p1852
I80
sS'S2LB'
p1853
I0
sS'S2NB'
p1854
I80
sS'S1LB'
p1855
I0
sS'S2UB'
p1856
F1100000.0
ssS'nerix_160222_1709.root'
p1857
(dp1858
S'S1UB'
p1859
I1400
sS'S1NB'
p1860
I50
sS'S2LB'
p1861
I0
sS'S2NB'
p1862
I50
sS'S1LB'
p1863
I0
sS'S2UB'
p1864
F400000.0
ssS'nerix_151211_1037.root'
p1865
(dp1866
S'S1UB'
p1867
F900.0
sS'S1NB'
p1868
I25
sS'S2LB'
p1869
F100000.0
sS'S2NB'
p1870
I25
sS'S1LB'
p1871
F400.0
sS'S2UB'
p1872
F170000.0
ssS'nerix_160126_1309.root'
p1873
(dp1874
S'S1UB'
p1875
I1400
sS'S1NB'
p1876
I50
sS'S2LB'
p1877
I0
sS'S2NB'
p1878
I50
sS'S1LB'
p1879
I0
sS'S2UB'
p1880
F400000.0
ssS'nerix_151207_1557.root'
p1881
(dp1882
S'S1UB'
p1883
I3500
sS'S1NB'
p1884
I80
sS'S2LB'
p1885
I0
sS'S2NB'
p1886
I80
sS'S1LB'
p1887
I0
sS'S2UB'
p1888
F1100000.0
ssS'nerix_160216_1431.root'
p1889
(dp1890
S'S1UB'
p1891
I3500
sS'S1NB'
p1892
I80
sS'S2LB'
p1893
I0
sS'S2NB'
p1894
I80
sS'S1LB'
p1895
I0
sS'S2UB'
p1896
F1100000.0
ssS'nerix_151214_1126.root'
p1897
(dp1898
S'S1UB'
p1899
I3500
sS'S1NB'
p1900
I80
sS'S2LB'
p1901
I0
sS'S2NB'
p1902
I80
sS'S1LB'
p1903
I0
sS'S2UB'
p1904
F1100000.0
ssS'nerix_150914_1519.root'
p1905
(dp1906
S'S1UB'
p1907
F400.0
sS'S1NB'
p1908
I15
sS'S2LB'
p1909
F15000.0
sS'S2NB'
p1910
I15
sS'S1LB'
p1911
F150.0
sS'S2UB'
p1912
F38000.0
ssS'nerix_151005_1536.root'
p1913
(dp1914
S'S1UB'
p1915
F900.0
sS'S1NB'
p1916
I25
sS'S2LB'
p1917
F50000.0
sS'S2NB'
p1918
I25
sS'S1LB'
p1919
F300.0
sS'S2UB'
p1920
F250000.0
ssS'nerix_160404_1232.root'
p1921
(dp1922
S'S1UB'
p1923
I3500
sS'S1NB'
p1924
I80
sS'S2LB'
p1925
I0
sS'S2NB'
p1926
I80
sS'S1LB'
p1927
I0
sS'S2UB'
p1928
F700000.0
ssS'nerix_160118_1309.root'
p1929
(dp1930
S'S1UB'
p1931
I3500
sS'S1NB'
p1932
I80
sS'S2LB'
p1933
I0
sS'S2NB'
p1934
I80
sS'S1LB'
p1935
I0
sS'S2UB'
p1936
F1100000.0
ssS'nerix_160404_1621.root'
p1937
(dp1938
S'S1UB'
p1939
I3500
sS'S1NB'
p1940
I80
sS'S2LB'
p1941
I0
sS'S2NB'
p1942
I80
sS'S1LB'
p1943
I0
sS'S2UB'
p1944
F700000.0
ssS'nerix_150928_1338.root'
p1945
(dp1946
S'S1UB'
p1947
F340.0
sS'S1NB'
p1948
I25
sS'S2LB'
p1949
F20000.0
sS'S2NB'
p1950
I25
sS'S1LB'
p1951
F100.0
sS'S2UB'
p1952
F85000.0
ssS'nerix_160104_1436.root'
p1953
(dp1954
S'S1UB'
p1955
I3500
sS'S1NB'
p1956
I80
sS'S2LB'
p1957
I0
sS'S2NB'
p1958
I80
sS'S1LB'
p1959
I0
sS'S2UB'
p1960
F1100000.0
ssS'nerix_140915_1158.root'
p1961
(dp1962
S'S1UB'
p1963
I3500
sS'S1NB'
p1964
I80
sS'S2LB'
p1965
I0
sS'S2NB'
p1966
I80
sS'S1LB'
p1967
I0
sS'S2UB'
p1968
F600000.0
ssS'nerix_151124_1719.root'
p1969
(dp1970
S'S1UB'
p1971
I1400
sS'S1NB'
p1972
I50
sS'S2LB'
p1973
I0
sS'S2NB'
p1974
I50
sS'S1LB'
p1975
I0
sS'S2UB'
p1976
F400000.0
ssS'nerix_151210_1437.root'
p1977
(dp1978
S'S1UB'
p1979
F5600.0
sS'S1NB'
p1980
I25
sS'S2LB'
p1981
F900000.0
sS'S2NB'
p1982
I25
sS'S1LB'
p1983
F3000.0
sS'S2UB'
p1984
F1400000.0
ssS'nerix_151210_1646.root'
p1985
(dp1986
S'S1UB'
p1987
F10000.0
sS'S1NB'
p1988
I25
sS'S2LB'
p1989
F1700000.0
sS'S2NB'
p1990
I25
sS'S1LB'
p1991
F5500.0
sS'S2UB'
p1992
F2500000.0
ssS'nerix_150128_1158.root'
p1993
(dp1994
S'S1UB'
p1995
I3500
sS'S1NB'
p1996
I80
sS'S2LB'
p1997
I0
sS'S2NB'
p1998
I80
sS'S1LB'
p1999
I0
sS'S2UB'
p2000
F700000.0
ssS'nerix_150915_1405.root'
p2001
(dp2002
S'S1UB'
p2003
F400.0
sS'S1NB'
p2004
I20
sS'S2LB'
p2005
F20000.0
sS'S2NB'
p2006
I20
sS'S1LB'
p2007
F100.0
sS'S2UB'
p2008
F40000.0
ssS'nerix_150914_1719.root'
p2009
(dp2010
S'S1UB'
p2011
F400.0
sS'S1NB'
p2012
I15
sS'S2LB'
p2013
F20000.0
sS'S2NB'
p2014
I15
sS'S1LB'
p2015
F120.0
sS'S2UB'
p2016
F45000.0
ssS'nerix_151203_1317.root'
p2017
(dp2018
S'S1UB'
p2019
I3500
sS'S1NB'
p2020
I80
sS'S2LB'
p2021
I0
sS'S2NB'
p2022
I80
sS'S1LB'
p2023
I0
sS'S2UB'
p2024
F1100000.0
ssS'nerix_160216_1557.root'
p2025
(dp2026
S'S1UB'
p2027
I3500
sS'S1NB'
p2028
I80
sS'S2LB'
p2029
I0
sS'S2NB'
p2030
I80
sS'S1LB'
p2031
I0
sS'S2UB'
p2032
F1100000.0
ssS'nerix_151228_1433.root'
p2033
(dp2034
S'S1UB'
p2035
I3500
sS'S1NB'
p2036
I80
sS'S2LB'
p2037
I0
sS'S2NB'
p2038
I80
sS'S1LB'
p2039
I0
sS'S2UB'
p2040
F1100000.0
ssS'nerix_151207_1536.root'
p2041
(dp2042
S'S1UB'
p2043
I3500
sS'S1NB'
p2044
I80
sS'S2LB'
p2045
I0
sS'S2NB'
p2046
I80
sS'S1LB'
p2047
I0
sS'S2UB'
p2048
F1100000.0
ssS'nerix_160208_1334.root'
p2049
(dp2050
S'S1UB'
p2051
I3500
sS'S1NB'
p2052
I80
sS'S2LB'
p2053
I0
sS'S2NB'
p2054
I80
sS'S1LB'
p2055
I0
sS'S2UB'
p2056
F1100000.0
ssS'nerix_151006_1547.root'
p2057
(dp2058
S'S1UB'
p2059
F500.0
sS'S1NB'
p2060
I25
sS'S2LB'
p2061
I0
sS'S2NB'
p2062
I25
sS'S1LB'
p2063
F100.0
sS'S2UB'
p2064
F55000.0
ssS'nerix_150904_1151.root'
p2065
(dp2066
S'S1UB'
p2067
F670.0
sS'S1NB'
p2068
I25
sS'S2LB'
p2069
F36000.0
sS'S2NB'
p2070
I25
sS'S1LB'
p2071
F350.0
sS'S2UB'
p2072
F65000.0
ssS'nerix_160216_2255.root'
p2073
(dp2074
S'S1UB'
p2075
I1400
sS'S1NB'
p2076
I50
sS'S2LB'
p2077
I0
sS'S2NB'
p2078
I50
sS'S1LB'
p2079
I0
sS'S2UB'
p2080
F400000.0
ssS'nerix_150930_1604.root'
p2081
(dp2082
S'S1UB'
p2083
F1000.0
sS'S1NB'
p2084
I25
sS'S2LB'
p2085
F30000.0
sS'S2NB'
p2086
I25
sS'S1LB'
p2087
F400.0
sS'S2UB'
p2088
F150000.0
ssS'nerix_150928_1257.root'
p2089
(dp2090
S'S1UB'
p2091
F340.0
sS'S1NB'
p2092
I25
sS'S2LB'
p2093
F20000.0
sS'S2NB'
p2094
I25
sS'S1LB'
p2095
F150.0
sS'S2UB'
p2096
F75000.0
ssS'nerix_160118_1558.root'
p2097
(dp2098
S'S1UB'
p2099
I1400
sS'S1NB'
p2100
I50
sS'S2LB'
p2101
I0
sS'S2NB'
p2102
I50
sS'S1LB'
p2103
I0
sS'S2UB'
p2104
F400000.0
ssS'nerix_140915_1742.root'
p2105
(dp2106
S'S1UB'
p2107
I3500
sS'S1NB'
p2108
I80
sS'S2LB'
p2109
I0
sS'S2NB'
p2110
I80
sS'S1LB'
p2111
I0
sS'S2UB'
p2112
F600000.0
ssS'nerix_151229_1206.root'
p2113
(dp2114
S'S1UB'
p2115
I3500
sS'S1NB'
p2116
I80
sS'S2LB'
p2117
I0
sS'S2NB'
p2118
I80
sS'S1LB'
p2119
I0
sS'S2UB'
p2120
F1100000.0
ssS'nerix_151209_1126.root'
p2121
(dp2122
S'S1UB'
p2123
F1200.0
sS'S1NB'
p2124
I35
sS'S2LB'
p2125
F50000.0
sS'S2NB'
p2126
I35
sS'S1LB'
p2127
F400.0
sS'S2UB'
p2128
F300000.0
ssS'nerix_151119_1527.root'
p2129
(dp2130
S'S1UB'
p2131
I3500
sS'S1NB'
p2132
I80
sS'S2LB'
p2133
I0
sS'S2NB'
p2134
I80
sS'S1LB'
p2135
I0
sS'S2UB'
p2136
F1100000.0
ssS'nerix_160112_1326.root'
p2137
(dp2138
S'S1UB'
p2139
I3500
sS'S1NB'
p2140
I80
sS'S2LB'
p2141
I0
sS'S2NB'
p2142
I80
sS'S1LB'
p2143
I0
sS'S2UB'
p2144
F1100000.0
ssS'nerix_151214_1313.root'
p2145
(dp2146
S'S1UB'
p2147
I3500
sS'S1NB'
p2148
I80
sS'S2LB'
p2149
I0
sS'S2NB'
p2150
I80
sS'S1LB'
p2151
I0
sS'S2UB'
p2152
F1100000.0
ssS'nerix_150106_1137.root'
p2153
(dp2154
S'S1UB'
p2155
I3500
sS'S1NB'
p2156
I80
sS'S2LB'
p2157
I0
sS'S2NB'
p2158
I80
sS'S1LB'
p2159
I0
sS'S2UB'
p2160
F700000.0
ssS'nerix_140917_1010.root'
p2161
(dp2162
S'S1UB'
p2163
I3500
sS'S1NB'
p2164
I80
sS'S2LB'
p2165
I0
sS'S2NB'
p2166
I80
sS'S1LB'
p2167
I0
sS'S2UB'
p2168
F600000.0
ssS'nerix_160229_1250.root'
p2169
(dp2170
S'S1UB'
p2171
I3500
sS'S1NB'
p2172
I80
sS'S2LB'
p2173
I0
sS'S2NB'
p2174
I80
sS'S1LB'
p2175
I0
sS'S2UB'
p2176
F1100000.0
ssS'nerix_151125_0929.root'
p2177
(dp2178
S'S1UB'
p2179
I1400
sS'S1NB'
p2180
I50
sS'S2LB'
p2181
I0
sS'S2NB'
p2182
I50
sS'S1LB'
p2183
I0
sS'S2UB'
p2184
F400000.0
ssS'nerix_151125_0625.root'
p2185
(dp2186
S'S1UB'
p2187
I1400
sS'S1NB'
p2188
I50
sS'S2LB'
p2189
I0
sS'S2NB'
p2190
I50
sS'S1LB'
p2191
I0
sS'S2UB'
p2192
F400000.0
ssS'nerix_151026_1342.root'
p2193
(dp2194
S'S1UB'
p2195
F1200.0
sS'S1NB'
p2196
I25
sS'S2LB'
p2197
F140000.0
sS'S2NB'
p2198
I25
sS'S1LB'
p2199
F500.0
sS'S2UB'
p2200
F300000.0
ssS'nerix_151117_1237.root'
p2201
(dp2202
S'S1UB'
p2203
F450.0
sS'S1NB'
p2204
I15
sS'S2LB'
p2205
I0
sS'S2NB'
p2206
I15
sS'S1LB'
p2207
F100.0
sS'S2UB'
p2208
F40000.0
ssS'nerix_151216_1018.root'
p2209
(dp2210
S'S1UB'
p2211
I1400
sS'S1NB'
p2212
I50
sS'S2LB'
p2213
I0
sS'S2NB'
p2214
I50
sS'S1LB'
p2215
I0
sS'S2UB'
p2216
F400000.0
ssS'nerix_160202_0626.root'
p2217
(dp2218
S'S1UB'
p2219
I1400
sS'S1NB'
p2220
I50
sS'S2LB'
p2221
I0
sS'S2NB'
p2222
I50
sS'S1LB'
p2223
I0
sS'S2UB'
p2224
F400000.0
ssS'nerix_151215_1524.root'
p2225
(dp2226
S'S1UB'
p2227
F3000.0
sS'S1NB'
p2228
I50
sS'S2LB'
p2229
F500000.0
sS'S2NB'
p2230
I50
sS'S1LB'
p2231
F1700.0
sS'S2UB'
p2232
F750000.0
ssS'nerix_160404_1325.root'
p2233
(dp2234
S'S1UB'
p2235
I3500
sS'S1NB'
p2236
I80
sS'S2LB'
p2237
I0
sS'S2NB'
p2238
I80
sS'S1LB'
p2239
I0
sS'S2UB'
p2240
F700000.0
ssS'nerix_150930_1346.root'
p2241
(dp2242
S'S1UB'
p2243
F750.0
sS'S1NB'
p2244
I25
sS'S2LB'
p2245
F50000.0
sS'S2NB'
p2246
I25
sS'S1LB'
p2247
F300.0
sS'S2UB'
p2248
F190000.0
ssS'nerix_150914_1647.root'
p2249
(dp2250
S'S1UB'
p2251
F400.0
sS'S1NB'
p2252
I15
sS'S2LB'
p2253
F15000.0
sS'S2NB'
p2254
I15
sS'S1LB'
p2255
F120.0
sS'S2UB'
p2256
F43000.0
ssS'nerix_151004_1427.root'
p2257
(dp2258
S'S1UB'
p2259
F500.0
sS'S1NB'
p2260
I25
sS'S2LB'
p2261
F10000.0
sS'S2NB'
p2262
I25
sS'S1LB'
p2263
F150.0
sS'S2UB'
p2264
F50000.0
ssS'nerix_160328_0918.root'
p2265
(dp2266
S'S1UB'
p2267
I3500
sS'S1NB'
p2268
I80
sS'S2LB'
p2269
I0
sS'S2NB'
p2270
I80
sS'S1LB'
p2271
I0
sS'S2UB'
p2272
F700000.0
ssS'nerix_150916_1342.root'
p2273
(dp2274
S'S1UB'
p2275
F400.0
sS'S1NB'
p2276
I25
sS'S2LB'
p2277
F14000.0
sS'S2NB'
p2278
I25
sS'S1LB'
p2279
F140.0
sS'S2UB'
p2280
F36000.0
ssS'nerix_150928_1622.root'
p2281
(dp2282
S'S1UB'
p2283
F360.0
sS'S1NB'
p2284
I25
sS'S2LB'
p2285
F20000.0
sS'S2NB'
p2286
I25
sS'S1LB'
p2287
F120.0
sS'S2UB'
p2288
F80000.0
ssS'nerix_151208_1400.root'
p2289
(dp2290
S'S1UB'
p2291
F400.0
sS'S1NB'
p2292
I25
sS'S2LB'
p2293
I0
sS'S2NB'
p2294
I25
sS'S1LB'
p2295
F50.0
sS'S2UB'
p2296
F60000.0
ssS'nerix_151005_1605.root'
p2297
(dp2298
S'S1UB'
p2299
F800.0
sS'S1NB'
p2300
I25
sS'S2LB'
p2301
F70000.0
sS'S2NB'
p2302
I25
sS'S1LB'
p2303
F300.0
sS'S2UB'
p2304
F280000.0
ssS'nerix_160127_1649.root'
p2305
(dp2306
S'S1UB'
p2307
I3500
sS'S1NB'
p2308
I80
sS'S2LB'
p2309
I0
sS'S2NB'
p2310
I80
sS'S1LB'
p2311
I0
sS'S2UB'
p2312
F1100000.0
ssS'nerix_151201_1249.root'
p2313
(dp2314
S'S1UB'
p2315
I3500
sS'S1NB'
p2316
I80
sS'S2LB'
p2317
I0
sS'S2NB'
p2318
I80
sS'S1LB'
p2319
I0
sS'S2UB'
p2320
F1100000.0
ssS'nerix_160301_0914.root'
p2321
(dp2322
S'S1UB'
p2323
I1400
sS'S1NB'
p2324
I50
sS'S2LB'
p2325
I0
sS'S2NB'
p2326
I50
sS'S1LB'
p2327
I0
sS'S2UB'
p2328
F400000.0
ssS'nerix_151103_1253.root'
p2329
(dp2330
S'S1UB'
p2331
F1100.0
sS'S1NB'
p2332
I25
sS'S2LB'
p2333
F140000.0
sS'S2NB'
p2334
I25
sS'S1LB'
p2335
F500.0
sS'S2UB'
p2336
F280000.0
ssS'nerix_160204_1337.root'
p2337
(dp2338
S'S1UB'
p2339
I3500
sS'S1NB'
p2340
I80
sS'S2LB'
p2341
I0
sS'S2NB'
p2342
I80
sS'S1LB'
p2343
I0
sS'S2UB'
p2344
F1100000.0
ssS'nerix_160222_1157.root'
p2345
(dp2346
S'S1UB'
p2347
I3500
sS'S1NB'
p2348
I80
sS'S2LB'
p2349
I0
sS'S2NB'
p2350
I80
sS'S1LB'
p2351
I0
sS'S2UB'
p2352
F1100000.0
ssS'nerix_151124_2014.root'
p2353
(dp2354
S'S1UB'
p2355
I1400
sS'S1NB'
p2356
I50
sS'S2LB'
p2357
I0
sS'S2NB'
p2358
I50
sS'S1LB'
p2359
I0
sS'S2UB'
p2360
F400000.0
ssS'nerix_160222_2310.root'
p2361
(dp2362
S'S1UB'
p2363
I1400
sS'S1NB'
p2364
I50
sS'S2LB'
p2365
I0
sS'S2NB'
p2366
I50
sS'S1LB'
p2367
I0
sS'S2UB'
p2368
F400000.0
ssS'nerix_160118_1529.root'
p2369
(dp2370
S'S1UB'
p2371
I3500
sS'S1NB'
p2372
I80
sS'S2LB'
p2373
I0
sS'S2NB'
p2374
I80
sS'S1LB'
p2375
I0
sS'S2UB'
p2376
F1100000.0
ssS'nerix_140929_1212.root'
p2377
(dp2378
S'S1UB'
p2379
I3500
sS'S1NB'
p2380
I80
sS'S2LB'
p2381
I0
sS'S2NB'
p2382
I80
sS'S1LB'
p2383
I0
sS'S2UB'
p2384
F600000.0
ssS'nerix_151002_1318.root'
p2385
(dp2386
S'S1UB'
p2387
F1400.0
sS'S1NB'
p2388
I25
sS'S2LB'
p2389
F70000.0
sS'S2NB'
p2390
I25
sS'S1LB'
p2391
F500.0
sS'S2UB'
p2392
F350000.0
ssS'nerix_160223_0627.root'
p2393
(dp2394
S'S1UB'
p2395
I1400
sS'S1NB'
p2396
I50
sS'S2LB'
p2397
I0
sS'S2NB'
p2398
I50
sS'S1LB'
p2399
I0
sS'S2UB'
p2400
F400000.0
ssS'nerix_150902_1512.root'
p2401
(dp2402
S'S1UB'
p2403
F200.0
sS'S1NB'
p2404
I25
sS'S2LB'
p2405
F5000.0
sS'S2NB'
p2406
I25
sS'S1LB'
p2407
F50.0
sS'S2UB'
p2408
F20000.0
ssS'nerix_160216_1403.root'
p2409
(dp2410
S'S1UB'
p2411
I3500
sS'S1NB'
p2412
I80
sS'S2LB'
p2413
I0
sS'S2NB'
p2414
I80
sS'S1LB'
p2415
I0
sS'S2UB'
p2416
F1100000.0
ssS'nerix_160111_1324.root'
p2417
(dp2418
S'S1UB'
p2419
I3500
sS'S1NB'
p2420
I80
sS'S2LB'
p2421
I0
sS'S2NB'
p2422
I80
sS'S1LB'
p2423
I0
sS'S2UB'
p2424
F1100000.0
ssS'nerix_141013_1034.root'
p2425
(dp2426
S'S1UB'
p2427
I3500
sS'S1NB'
p2428
I80
sS'S2LB'
p2429
I0
sS'S2NB'
p2430
I80
sS'S1LB'
p2431
I0
sS'S2UB'
p2432
F600000.0
ssS'nerix_151228_1607.root'
p2433
(dp2434
S'S1UB'
p2435
I3500
sS'S1NB'
p2436
I80
sS'S2LB'
p2437
I0
sS'S2NB'
p2438
I80
sS'S1LB'
p2439
I0
sS'S2UB'
p2440
F1100000.0
ssS'nerix_151005_1505.root'
p2441
(dp2442
S'S1UB'
p2443
F900.0
sS'S1NB'
p2444
I25
sS'S2LB'
p2445
F50000.0
sS'S2NB'
p2446
I25
sS'S1LB'
p2447
F350.0
sS'S2UB'
p2448
F250000.0
ssS'nerix_160229_1435.root'
p2449
(dp2450
S'S1UB'
p2451
I3500
sS'S1NB'
p2452
I80
sS'S2LB'
p2453
I0
sS'S2NB'
p2454
I80
sS'S1LB'
p2455
I0
sS'S2UB'
p2456
F1100000.0
ssS'nerix_160118_1853.root'
p2457
(dp2458
S'S1UB'
p2459
I1400
sS'S1NB'
p2460
I50
sS'S2LB'
p2461
I0
sS'S2NB'
p2462
I50
sS'S1LB'
p2463
I0
sS'S2UB'
p2464
F400000.0
ssS'nerix_140915_1043.root'
p2465
(dp2466
S'S1UB'
p2467
I3500
sS'S1NB'
p2468
I80
sS'S2LB'
p2469
I0
sS'S2NB'
p2470
I80
sS'S1LB'
p2471
I0
sS'S2UB'
p2472
F600000.0
ssS'nerix_151123_1309.root'
p2473
(dp2474
S'S1UB'
p2475
F450.0
sS'S1NB'
p2476
I15
sS'S2LB'
p2477
I0
sS'S2NB'
p2478
I15
sS'S1LB'
p2479
I0
sS'S2UB'
p2480
F40000.0
ssS'nerix_160216_1718.root'
p2481
(dp2482
S'S1UB'
p2483
I3500
sS'S1NB'
p2484
I80
sS'S2LB'
p2485
I0
sS'S2NB'
p2486
I80
sS'S1LB'
p2487
I0
sS'S2UB'
p2488
F1100000.0
ssS'nerix_160118_2007.root'
p2489
(dp2490
S'S1UB'
p2491
I1400
sS'S1NB'
p2492
I50
sS'S2LB'
p2493
I0
sS'S2NB'
p2494
I50
sS'S1LB'
p2495
I0
sS'S2UB'
p2496
F400000.0
ssS'nerix_151223_1343.root'
p2497
(dp2498
S'S1UB'
p2499
I3500
sS'S1NB'
p2500
I80
sS'S2LB'
p2501
I0
sS'S2NB'
p2502
I80
sS'S1LB'
p2503
I0
sS'S2UB'
p2504
F1100000.0
ssS'nerix_140930_0925.root'
p2505
(dp2506
S'S1UB'
p2507
I3500
sS'S1NB'
p2508
I80
sS'S2LB'
p2509
I0
sS'S2NB'
p2510
I80
sS'S1LB'
p2511
I0
sS'S2UB'
p2512
F600000.0
ssS'nerix_151119_1506.root'
p2513
(dp2514
S'S1UB'
p2515
I3500
sS'S1NB'
p2516
I50
sS'S2LB'
p2517
I0
sS'S2NB'
p2518
I50
sS'S1LB'
p2519
I0
sS'S2UB'
p2520
F1100000.0
ssS'nerix_160404_1530.root'
p2521
(dp2522
S'S1UB'
p2523
I3500
sS'S1NB'
p2524
I80
sS'S2LB'
p2525
I0
sS'S2NB'
p2526
I80
sS'S1LB'
p2527
I0
sS'S2UB'
p2528
F700000.0
ssS'nerix_151214_1344.root'
p2529
(dp2530
S'S1UB'
p2531
I3500
sS'S1NB'
p2532
I80
sS'S2LB'
p2533
I0
sS'S2NB'
p2534
I80
sS'S1LB'
p2535
I0
sS'S2UB'
p2536
F1100000.0
ssS'nerix_160323_1508.root'
p2537
(dp2538
S'S1UB'
p2539
I3500
sS'S1NB'
p2540
I80
sS'S2LB'
p2541
I0
sS'S2NB'
p2542
I80
sS'S1LB'
p2543
I0
sS'S2UB'
p2544
F700000.0
ssS'nerix_151222_1227.root'
p2545
(dp2546
S'S1UB'
p2547
I3500
sS'S1NB'
p2548
I80
sS'S2LB'
p2549
I0
sS'S2NB'
p2550
I80
sS'S1LB'
p2551
I0
sS'S2UB'
p2552
F1100000.0
ssS'nerix_160216_2132.root'
p2553
(dp2554
S'S1UB'
p2555
I1400
sS'S1NB'
p2556
I50
sS'S2LB'
p2557
I0
sS'S2NB'
p2558
I50
sS'S1LB'
p2559
I0
sS'S2UB'
p2560
F400000.0
ssS'nerix_160229_1534.root'
p2561
(dp2562
S'S1UB'
p2563
I3500
sS'S1NB'
p2564
I80
sS'S2LB'
p2565
I0
sS'S2NB'
p2566
I80
sS'S1LB'
p2567
I0
sS'S2UB'
p2568
F1100000.0
ssS'nerix_151028_1205.root'
p2569
(dp2570
S'S1UB'
p2571
F1300.0
sS'S1NB'
p2572
I25
sS'S2LB'
p2573
F20000.0
sS'S2NB'
p2574
I25
sS'S1LB'
p2575
F500.0
sS'S2UB'
p2576
F90000.0
ssS'nerix_160208_1521.root'
p2577
(dp2578
S'S1UB'
p2579
I3500
sS'S1NB'
p2580
I80
sS'S2LB'
p2581
I0
sS'S2NB'
p2582
I80
sS'S1LB'
p2583
I0
sS'S2UB'
p2584
F1100000.0
ssS'nerix_160216_1332.root'
p2585
(dp2586
S'S1UB'
p2587
I3500
sS'S1NB'
p2588
I80
sS'S2LB'
p2589
I0
sS'S2NB'
p2590
I80
sS'S1LB'
p2591
I0
sS'S2UB'
p2592
F1100000.0
ssS'nerix_160328_1053.root'
p2593
(dp2594
S'S1UB'
p2595
I3500
sS'S1NB'
p2596
I80
sS'S2LB'
p2597
I0
sS'S2NB'
p2598
I80
sS'S1LB'
p2599
I0
sS'S2UB'
p2600
F700000.0
ssS'nerix_160104_1410.root'
p2601
(dp2602
S'S1UB'
p2603
I3500
sS'S1NB'
p2604
I80
sS'S2LB'
p2605
I0
sS'S2NB'
p2606
I80
sS'S1LB'
p2607
I0
sS'S2UB'
p2608
F1100000.0
ssS'nerix_151006_0949.root'
p2609
(dp2610
S'S1UB'
p2611
F1000.0
sS'S1NB'
p2612
I25
sS'S2LB'
p2613
F220000.0
sS'S2NB'
p2614
I25
sS'S1LB'
p2615
F400.0
sS'S2UB'
p2616
F360000.0
ssS'nerix_150902_1643.root'
p2617
(dp2618
S'S1UB'
p2619
F500.0
sS'S1NB'
p2620
I25
sS'S2LB'
p2621
F26000.0
sS'S2NB'
p2622
I25
sS'S1LB'
p2623
F250.0
sS'S2UB'
p2624
F55000.0
ssS'nerix_160222_1449.root'
p2625
(dp2626
S'S1UB'
p2627
I3500
sS'S1NB'
p2628
I80
sS'S2LB'
p2629
I0
sS'S2NB'
p2630
I80
sS'S1LB'
p2631
I0
sS'S2UB'
p2632
F1100000.0
ssS'nerix_151228_1454.root'
p2633
(dp2634
S'S1UB'
p2635
I3500
sS'S1NB'
p2636
I80
sS'S2LB'
p2637
I0
sS'S2NB'
p2638
I80
sS'S1LB'
p2639
I0
sS'S2UB'
p2640
F1100000.0
ssS'nerix_160111_1306.root'
p2641
(dp2642
S'S1UB'
p2643
I3500
sS'S1NB'
p2644
I80
sS'S2LB'
p2645
I0
sS'S2NB'
p2646
I80
sS'S1LB'
p2647
I0
sS'S2UB'
p2648
F1100000.0
ssS'nerix_160208_1137.root'
p2649
(dp2650
S'S1UB'
p2651
I3500
sS'S1NB'
p2652
I80
sS'S2LB'
p2653
I0
sS'S2NB'
p2654
I80
sS'S1LB'
p2655
I0
sS'S2UB'
p2656
F1100000.0
ssS'nerix_151209_1353.root'
p2657
(dp2658
S'S1UB'
p2659
F1000.0
sS'S1NB'
p2660
I25
sS'S2LB'
p2661
F50000.0
sS'S2NB'
p2662
I25
sS'S1LB'
p2663
F400.0
sS'S2UB'
p2664
F350000.0
ssS'nerix_151222_1320.root'
p2665
(dp2666
S'S1UB'
p2667
I3500
sS'S1NB'
p2668
I80
sS'S2LB'
p2669
I0
sS'S2NB'
p2670
I80
sS'S1LB'
p2671
I0
sS'S2UB'
p2672
F1100000.0
ssS'nerix_151019_1426.root'
p2673
(dp2674
S'S1UB'
p2675
F1300.0
sS'S1NB'
p2676
I25
sS'S2LB'
p2677
F100000.0
sS'S2NB'
p2678
I25
sS'S1LB'
p2679
F800.0
sS'S2UB'
p2680
F280000.0
ssS'nerix_160104_2013.root'
p2681
(dp2682
S'S1UB'
p2683
I1400
sS'S1NB'
p2684
I50
sS'S2LB'
p2685
I0
sS'S2NB'
p2686
I50
sS'S1LB'
p2687
I0
sS'S2UB'
p2688
F400000.0
ssS'nerix_160208_2205.root'
p2689
(dp2690
S'S1UB'
p2691
I1400
sS'S1NB'
p2692
I50
sS'S2LB'
p2693
I0
sS'S2NB'
p2694
I50
sS'S1LB'
p2695
I0
sS'S2UB'
p2696
F400000.0
ssS'nerix_160125_1618.root'
p2697
(dp2698
S'S1UB'
p2699
I3500
sS'S1NB'
p2700
I80
sS'S2LB'
p2701
I0
sS'S2NB'
p2702
I80
sS'S1LB'
p2703
I0
sS'S2UB'
p2704
F1100000.0
ssS'nerix_160118_1147.root'
p2705
(dp2706
S'S1UB'
p2707
I3500
sS'S1NB'
p2708
I80
sS'S2LB'
p2709
I0
sS'S2NB'
p2710
I80
sS'S1LB'
p2711
I0
sS'S2UB'
p2712
F1100000.0
ssS'nerix_151207_1619.root'
p2713
(dp2714
S'S1UB'
p2715
I3500
sS'S1NB'
p2716
I80
sS'S2LB'
p2717
I0
sS'S2NB'
p2718
I80
sS'S1LB'
p2719
I0
sS'S2UB'
p2720
F1100000.0
ssS'nerix_150915_1435.root'
p2721
(dp2722
S'S1UB'
p2723
F400.0
sS'S1NB'
p2724
I25
sS'S2LB'
p2725
F18000.0
sS'S2NB'
p2726
I25
sS'S1LB'
p2727
F100.0
sS'S2UB'
p2728
F45000.0
ssS'nerix_151209_1240.root'
p2729
(dp2730
S'S1UB'
p2731
F1100.0
sS'S1NB'
p2732
I25
sS'S2LB'
p2733
F50000.0
sS'S2NB'
p2734
I25
sS'S1LB'
p2735
F400.0
sS'S2UB'
p2736
F300000.0
ssS'nerix_160329_2149.root'
p2737
(dp2738
S'S1UB'
p2739
I3500
sS'S1NB'
p2740
I80
sS'S2LB'
p2741
I0
sS'S2NB'
p2742
I80
sS'S1LB'
p2743
I0
sS'S2UB'
p2744
F700000.0
ssS'nerix_160111_1213.root'
p2745
(dp2746
S'S1UB'
p2747
I3500
sS'S1NB'
p2748
I80
sS'S2LB'
p2749
I0
sS'S2NB'
p2750
I80
sS'S1LB'
p2751
I0
sS'S2UB'
p2752
F1100000.0
ssS'nerix_160208_1039.root'
p2753
(dp2754
S'S1UB'
p2755
I3500
sS'S1NB'
p2756
I80
sS'S2LB'
p2757
I0
sS'S2NB'
p2758
I80
sS'S1LB'
p2759
I0
sS'S2UB'
p2760
F1100000.0
ssS'nerix_160126_1418.root'
p2761
(dp2762
S'S1UB'
p2763
I1400
sS'S1NB'
p2764
I50
sS'S2LB'
p2765
I0
sS'S2NB'
p2766
I50
sS'S1LB'
p2767
I0
sS'S2UB'
p2768
F400000.0
ssS'nerix_160204_1119.root'
p2769
(dp2770
S'S1UB'
p2771
I3500
sS'S1NB'
p2772
I80
sS'S2LB'
p2773
I0
sS'S2NB'
p2774
I80
sS'S1LB'
p2775
I0
sS'S2UB'
p2776
F1100000.0
ssS'nerix_160329_2117.root'
p2777
(dp2778
S'S1UB'
p2779
I3500
sS'S1NB'
p2780
I80
sS'S2LB'
p2781
I0
sS'S2NB'
p2782
I80
sS'S1LB'
p2783
I0
sS'S2UB'
p2784
F700000.0
ssS'nerix_160104_1140.root'
p2785
(dp2786
S'S1UB'
p2787
I3500
sS'S1NB'
p2788
I80
sS'S2LB'
p2789
I0
sS'S2NB'
p2790
I80
sS'S1LB'
p2791
I0
sS'S2UB'
p2792
F1100000.0
ssS'nerix_160111_1145.root'
p2793
(dp2794
S'S1UB'
p2795
I3500
sS'S1NB'
p2796
I80
sS'S2LB'
p2797
I0
sS'S2NB'
p2798
I80
sS'S1LB'
p2799
I0
sS'S2UB'
p2800
F1100000.0
ssS'nerix_140929_1115.root'
p2801
(dp2802
S'S1UB'
p2803
I3500
sS'S1NB'
p2804
I80
sS'S2LB'
p2805
I0
sS'S2NB'
p2806
I80
sS'S1LB'
p2807
I0
sS'S2UB'
p2808
F600000.0
ssS'nerix_150914_1236.root'
p2809
(dp2810
S'S1UB'
p2811
F400.0
sS'S1NB'
p2812
I25
sS'S2LB'
p2813
F20000.0
sS'S2NB'
p2814
I25
sS'S1LB'
p2815
F100.0
sS'S2UB'
p2816
F44000.0
ssS'nerix_151005_1408.root'
p2817
(dp2818
S'S1UB'
p2819
F1100.0
sS'S1NB'
p2820
I25
sS'S2LB'
p2821
F30000.0
sS'S2NB'
p2822
I25
sS'S1LB'
p2823
F400.0
sS'S2UB'
p2824
F200000.0
ssS'nerix_151216_1139.root'
p2825
(dp2826
S'S1UB'
p2827
I1400
sS'S1NB'
p2828
I50
sS'S2LB'
p2829
I0
sS'S2NB'
p2830
I50
sS'S1LB'
p2831
I0
sS'S2UB'
p2832
F400000.0
ssS'nerix_151006_1150.root'
p2833
(dp2834
S'S1UB'
p2835
F450.0
sS'S1NB'
p2836
I25
sS'S2LB'
p2837
F5000.0
sS'S2NB'
p2838
I25
sS'S1LB'
p2839
F100.0
sS'S2UB'
p2840
F60000.0
ssS'nerix_151210_1237.root'
p2841
(dp2842
S'S1UB'
p2843
F1600.0
sS'S1NB'
p2844
I25
sS'S2LB'
p2845
F230000.0
sS'S2NB'
p2846
I25
sS'S1LB'
p2847
F900.0
sS'S2UB'
p2848
F400000.0
ssS'nerix_160216_1651.root'
p2849
(dp2850
S'S1UB'
p2851
I3500
sS'S1NB'
p2852
I80
sS'S2LB'
p2853
I0
sS'S2NB'
p2854
I80
sS'S1LB'
p2855
I0
sS'S2UB'
p2856
F1100000.0
ssS'nerix_151117_1336.root'
p2857
(dp2858
S'S1UB'
p2859
F400.0
sS'S1NB'
p2860
I15
sS'S2LB'
p2861
I0
sS'S2NB'
p2862
I15
sS'S1LB'
p2863
F100.0
sS'S2UB'
p2864
F40000.0
ssS'nerix_160301_0725.root'
p2865
(dp2866
S'S1UB'
p2867
I1400
sS'S1NB'
p2868
I50
sS'S2LB'
p2869
I0
sS'S2NB'
p2870
I50
sS'S1LB'
p2871
I0
sS'S2UB'
p2872
F400000.0
ssS'nerix_150128_1622.root'
p2873
(dp2874
S'S1UB'
p2875
I3500
sS'S1NB'
p2876
I80
sS'S2LB'
p2877
I0
sS'S2NB'
p2878
I80
sS'S1LB'
p2879
I0
sS'S2UB'
p2880
F700000.0
ssS'nerix_151203_1239.root'
p2881
(dp2882
S'S1UB'
p2883
I3500
sS'S1NB'
p2884
I80
sS'S2LB'
p2885
I0
sS'S2NB'
p2886
I80
sS'S1LB'
p2887
I0
sS'S2UB'
p2888
F1100000.0
ssS'nerix_151006_1100.root'
p2889
(dp2890
S'S1UB'
p2891
F500.0
sS'S1NB'
p2892
I25
sS'S2LB'
p2893
F10000.0
sS'S2NB'
p2894
I25
sS'S1LB'
p2895
F100.0
sS'S2UB'
p2896
F60000.0
ssS'nerix_160208_1109.root'
p2897
(dp2898
S'S1UB'
p2899
I3500
sS'S1NB'
p2900
I80
sS'S2LB'
p2901
I0
sS'S2NB'
p2902
I80
sS'S1LB'
p2903
I0
sS'S2UB'
p2904
F1100000.0
ssS'nerix_160104_1502.root'
p2905
(dp2906
S'S1UB'
p2907
I3500
sS'S1NB'
p2908
I80
sS'S2LB'
p2909
I0
sS'S2NB'
p2910
I80
sS'S1LB'
p2911
I0
sS'S2UB'
p2912
F1100000.0
ssS'nerix_160118_1436.root'
p2913
(dp2914
S'S1UB'
p2915
I3500
sS'S1NB'
p2916
I80
sS'S2LB'
p2917
I0
sS'S2NB'
p2918
I80
sS'S1LB'
p2919
I0
sS'S2UB'
p2920
F1100000.0
ssS'nerix_160323_1433.root'
p2921
(dp2922
S'S1UB'
p2923
I3500
sS'S1NB'
p2924
I80
sS'S2LB'
p2925
I0
sS'S2NB'
p2926
I80
sS'S1LB'
p2927
I0
sS'S2UB'
p2928
F700000.0
ssS'nerix_150914_1750.root'
p2929
(dp2930
S'S1UB'
p2931
F300.0
sS'S1NB'
p2932
I15
sS'S2LB'
p2933
F24000.0
sS'S2NB'
p2934
I15
sS'S1LB'
p2935
F120.0
sS'S2UB'
p2936
F50000.0
ssS'nerix_160111_1245.root'
p2937
(dp2938
S'S1UB'
p2939
I3500
sS'S1NB'
p2940
I80
sS'S2LB'
p2941
I0
sS'S2NB'
p2942
I80
sS'S1LB'
p2943
I0
sS'S2UB'
p2944
F1100000.0
ssS'nerix_150917_0941.root'
p2945
(dp2946
S'S1UB'
p2947
F400.0
sS'S1NB'
p2948
I25
sS'S2LB'
p2949
F18000.0
sS'S2NB'
p2950
I25
sS'S1LB'
p2951
F140.0
sS'S2UB'
p2952
F42000.0
ssS'nerix_160104_1113.root'
p2953
(dp2954
S'S1UB'
p2955
I3500
sS'S1NB'
p2956
I80
sS'S2LB'
p2957
I0
sS'S2NB'
p2958
I80
sS'S1LB'
p2959
I0
sS'S2UB'
p2960
F1100000.0
ssS'nerix_141008_1025.root'
p2961
(dp2962
S'S1UB'
p2963
I3500
sS'S1NB'
p2964
I80
sS'S2LB'
p2965
I0
sS'S2NB'
p2966
I80
sS'S1LB'
p2967
I0
sS'S2UB'
p2968
F600000.0
ssS'nerix_160208_1928.root'
p2969
(dp2970
S'S1UB'
p2971
I1400
sS'S1NB'
p2972
I50
sS'S2LB'
p2973
I0
sS'S2NB'
p2974
I50
sS'S1LB'
p2975
I0
sS'S2UB'
p2976
F400000.0
ssS'nerix_151207_1514.root'
p2977
(dp2978
S'S1UB'
p2979
I3500
sS'S1NB'
p2980
I80
sS'S2LB'
p2981
I0
sS'S2NB'
p2982
I80
sS'S1LB'
p2983
I0
sS'S2UB'
p2984
F1100000.0
ssS'nerix_150902_1328.root'
p2985
(dp2986
S'S1UB'
p2987
F280.0
sS'S1NB'
p2988
I10
sS'S2LB'
p2989
F20000.0
sS'S2NB'
p2990
I10
sS'S1LB'
p2991
F150.0
sS'S2UB'
p2992
F35000.0
ssS'nerix_151229_1120.root'
p2993
(dp2994
S'S1UB'
p2995
I3500
sS'S1NB'
p2996
I80
sS'S2LB'
p2997
I0
sS'S2NB'
p2998
I80
sS'S1LB'
p2999
I0
sS'S2UB'
p3000
F1100000.0
ssS'nerix_151006_1404.root'
p3001
(dp3002
S'S1UB'
p3003
F450.0
sS'S1NB'
p3004
I25
sS'S2LB'
p3005
F5000.0
sS'S2NB'
p3006
I25
sS'S1LB'
p3007
F150.0
sS'S2UB'
p3008
F50000.0
ssS'nerix_151214_1213.root'
p3009
(dp3010
S'S1UB'
p3011
I3500
sS'S1NB'
p3012
I80
sS'S2LB'
p3013
I0
sS'S2NB'
p3014
I80
sS'S1LB'
p3015
I0
sS'S2UB'
p3016
F1100000.0
ssS'nerix_150917_1202.root'
p3017
(dp3018
S'S1UB'
p3019
F350.0
sS'S1NB'
p3020
I25
sS'S2LB'
p3021
F22000.0
sS'S2NB'
p3022
I25
sS'S1LB'
p3023
F100.0
sS'S2UB'
p3024
F55000.0
ssS'nerix_160125_1353.root'
p3025
(dp3026
S'S1UB'
p3027
I3500
sS'S1NB'
p3028
I80
sS'S2LB'
p3029
I0
sS'S2NB'
p3030
I80
sS'S1LB'
p3031
I0
sS'S2UB'
p3032
F1100000.0
ssS'nerix_160118_1409.root'
p3033
(dp3034
S'S1UB'
p3035
I3500
sS'S1NB'
p3036
I80
sS'S2LB'
p3037
I0
sS'S2NB'
p3038
I80
sS'S1LB'
p3039
I0
sS'S2UB'
p3040
F1100000.0
ssS'nerix_160329_2014.root'
p3041
(dp3042
S'S1UB'
p3043
I3500
sS'S1NB'
p3044
I80
sS'S2LB'
p3045
I0
sS'S2NB'
p3046
I80
sS'S1LB'
p3047
I0
sS'S2UB'
p3048
F700000.0
ssS'nerix_160105_0713.root'
p3049
(dp3050
S'S1UB'
p3051
I1400
sS'S1NB'
p3052
I50
sS'S2LB'
p3053
I0
sS'S2NB'
p3054
I50
sS'S1LB'
p3055
I0
sS'S2UB'
p3056
F400000.0
ssS'nerix_160118_1214.root'
p3057
(dp3058
S'S1UB'
p3059
I3500
sS'S1NB'
p3060
I80
sS'S2LB'
p3061
I0
sS'S2NB'
p3062
I80
sS'S1LB'
p3063
I0
sS'S2UB'
p3064
F1100000.0
ssS'nerix_160229_1342.root'
p3065
(dp3066
S'S1UB'
p3067
I3500
sS'S1NB'
p3068
I80
sS'S2LB'
p3069
I0
sS'S2NB'
p3070
I80
sS'S1LB'
p3071
I0
sS'S2UB'
p3072
F1100000.0
ssS'nerix_140928_2321.root'
p3073
(dp3074
S'S1UB'
p3075
I3500
sS'S1NB'
p3076
I80
sS'S2LB'
p3077
I0
sS'S2NB'
p3078
I80
sS'S1LB'
p3079
I0
sS'S2UB'
p3080
F600000.0
ssS'nerix_160118_1737.root'
p3081
(dp3082
S'S1UB'
p3083
I1400
sS'S1NB'
p3084
I50
sS'S2LB'
p3085
I0
sS'S2NB'
p3086
I50
sS'S1LB'
p3087
I0
sS'S2UB'
p3088
F400000.0
ssS'nerix_160118_2209.root'
p3089
(dp3090
S'S1UB'
p3091
I1400
sS'S1NB'
p3092
I50
sS'S2LB'
p3093
I0
sS'S2NB'
p3094
I50
sS'S1LB'
p3095
I0
sS'S2UB'
p3096
F400000.0
ssS'nerix_151002_1143.root'
p3097
(dp3098
S'S1UB'
p3099
F900.0
sS'S1NB'
p3100
I25
sS'S2LB'
p3101
F35000.0
sS'S2NB'
p3102
I25
sS'S1LB'
p3103
F350.0
sS'S2UB'
p3104
F250000.0
ssS'nerix_160104_1303.root'
p3105
(dp3106
S'S1UB'
p3107
I3500
sS'S1NB'
p3108
I80
sS'S2LB'
p3109
I0
sS'S2NB'
p3110
I80
sS'S1LB'
p3111
I0
sS'S2UB'
p3112
F1100000.0
ssS'nerix_150902_1228.root'
p3113
(dp3114
S'S1UB'
p3115
F280.0
sS'S1NB'
p3116
I25
sS'S2LB'
p3117
F10000.0
sS'S2NB'
p3118
I25
sS'S1LB'
p3119
F70.0
sS'S2UB'
p3120
F25000.0
ss.