(dp0
S'nerix_151102_1307.root'
p1
(dp2
S'S1UB'
p3
F1200.0
sS'S1NB'
p4
I25
sS'S2LB'
p5
F100000.0
sS'S2NB'
p6
I25
sS'S1LB'
p7
F400.0
sS'S2UB'
p8
F300000.0
ssS'nerix_150914_1307.root'
p9
(dp10
S'S1UB'
p11
F400.0
sS'S1NB'
p12
I25
sS'S2LB'
p13
F4000.0
sS'S2NB'
p14
I25
sS'S1LB'
p15
F120.0
sS'S2UB'
p16
F28000.0
ssS'nerix_151019_1546.root'
p17
(dp18
S'S1UB'
p19
F1200.0
sS'S1NB'
p20
I25
sS'S2LB'
p21
F140000.0
sS'S2NB'
p22
I25
sS'S1LB'
p23
F600.0
sS'S2UB'
p24
F300000.0
ssS'nerix_151019_1635.root'
p25
(dp26
S'S1UB'
p27
F1100.0
sS'S1NB'
p28
I25
sS'S2LB'
p29
F150000.0
sS'S2NB'
p30
I25
sS'S1LB'
p31
F450.0
sS'S2UB'
p32
F370000.0
ssS'nerix_151201_1249.root'
p33
(dp34
S'S1UB'
p35
I3500
sS'S1NB'
p36
I80
sS'S2LB'
p37
I0
sS'S2NB'
p38
I80
sS'S1LB'
p39
I0
sS'S2UB'
p40
F1100000.0
ssS'nerix_150928_1516.root'
p41
(dp42
S'S1UB'
p43
F380.0
sS'S1NB'
p44
I25
sS'S2LB'
p45
F20000.0
sS'S2NB'
p46
I25
sS'S1LB'
p47
F180.0
sS'S2UB'
p48
F70000.0
ssS'nerix_151123_1417.root'
p49
(dp50
S'S1UB'
p51
F950.0
sS'S1NB'
p52
I10
sS'S2LB'
p53
F100000.0
sS'S2NB'
p54
I10
sS'S1LB'
p55
F400.0
sS'S2UB'
p56
F250000.0
ssS'nerix_151117_1307.root'
p57
(dp58
S'S1UB'
p59
F350.0
sS'S1NB'
p60
I10
sS'S2LB'
p61
I0
sS'S2NB'
p62
I10
sS'S1LB'
p63
F100.0
sS'S2UB'
p64
F35000.0
ssS'nerix_150914_1618.root'
p65
(dp66
S'S1UB'
p67
F400.0
sS'S1NB'
p68
I20
sS'S2LB'
p69
F12000.0
sS'S2NB'
p70
I20
sS'S1LB'
p71
F120.0
sS'S2UB'
p72
F40000.0
ssS'nerix_151119_1628.root'
p73
(dp74
S'S1UB'
p75
I3500
sS'S1NB'
p76
I80
sS'S2LB'
p77
I0
sS'S2NB'
p78
I80
sS'S1LB'
p79
I0
sS'S2UB'
p80
F1100000.0
ssS'nerix_151109_1727.root'
p81
(dp82
S'S1UB'
p83
I1400
sS'S1NB'
p84
I50
sS'S2LB'
p85
I0
sS'S2NB'
p86
I50
sS'S1LB'
p87
I0
sS'S2UB'
p88
F400000.0
ssS'nerix_151102_1126.root'
p89
(dp90
S'S1UB'
p91
I1400
sS'S1NB'
p92
I25
sS'S2LB'
p93
F70000.0
sS'S2NB'
p94
I25
sS'S1LB'
p95
F600.0
sS'S2UB'
p96
F300000.0
ssS'nerix_151103_1253.root'
p97
(dp98
S'S1UB'
p99
F1100.0
sS'S1NB'
p100
I25
sS'S2LB'
p101
F140000.0
sS'S2NB'
p102
I25
sS'S1LB'
p103
F500.0
sS'S2UB'
p104
F280000.0
ssS'nerix_151026_1215.root'
p105
(dp106
S'S1UB'
p107
F1350.0
sS'S1NB'
p108
I25
sS'S2LB'
p109
F80000.0
sS'S2NB'
p110
I25
sS'S1LB'
p111
F700.0
sS'S2UB'
p112
F250000.0
ssS'nerix_151028_1231.root'
p113
(dp114
S'S1UB'
p115
F1200.0
sS'S1NB'
p116
I25
sS'S2LB'
p117
F20000.0
sS'S2NB'
p118
I25
sS'S1LB'
p119
F400.0
sS'S2UB'
p120
F100000.0
ssS'nerix_151124_2014.root'
p121
(dp122
S'S1UB'
p123
I1400
sS'S1NB'
p124
I50
sS'S2LB'
p125
I0
sS'S2NB'
p126
I50
sS'S1LB'
p127
I0
sS'S2UB'
p128
F400000.0
ssS'nerix_150930_1233.root'
p129
(dp130
S'S1UB'
p131
F625.0
sS'S1NB'
p132
I25
sS'S2LB'
p133
F80000.0
sS'S2NB'
p134
I25
sS'S1LB'
p135
F250.0
sS'S2UB'
p136
F230000.0
ssS'nerix_151117_1237.root'
p137
(dp138
S'S1UB'
p139
F450.0
sS'S1NB'
p140
I15
sS'S2LB'
p141
I0
sS'S2NB'
p142
I15
sS'S1LB'
p143
F100.0
sS'S2UB'
p144
F40000.0
ssS'nerix_151116_1552.root'
p145
(dp146
S'S1UB'
p147
F300.0
sS'S1NB'
p148
I15
sS'S2LB'
p149
F10000.0
sS'S2NB'
p150
I15
sS'S1LB'
p151
F50.0
sS'S2UB'
p152
F40000.0
ssS'nerix_151102_1154.root'
p153
(dp154
S'S1UB'
p155
F1300.0
sS'S1NB'
p156
I25
sS'S2LB'
p157
F100000.0
sS'S2NB'
p158
I25
sS'S1LB'
p159
F600.0
sS'S2UB'
p160
F300000.0
ssS'nerix_151004_1554.root'
p161
(dp162
S'S1UB'
p163
F400.0
sS'S1NB'
p164
I25
sS'S2LB'
p165
F10000.0
sS'S2NB'
p166
I25
sS'S1LB'
p167
F100.0
sS'S2UB'
p168
F60000.0
ssS'nerix_151207_1427.root'
p169
(dp170
S'S1UB'
p171
I3500
sS'S1NB'
p172
I80
sS'S2LB'
p173
I0
sS'S2NB'
p174
I80
sS'S1LB'
p175
I0
sS'S2UB'
p176
F1100000.0
ssS'nerix_150902_1512.root'
p177
(dp178
S'S1UB'
p179
F200.0
sS'S1NB'
p180
I25
sS'S2LB'
p181
F5000.0
sS'S2NB'
p182
I25
sS'S1LB'
p183
F50.0
sS'S2UB'
p184
F20000.0
ssS'nerix_150914_1346.root'
p185
(dp186
S'S1UB'
p187
F400.0
sS'S1NB'
p188
I15
sS'S2LB'
p189
F8000.0
sS'S2NB'
p190
I15
sS'S1LB'
p191
F120.0
sS'S2UB'
p192
F30000.0
ssS'nerix_151216_1532.root'
p193
(dp194
S'S1UB'
p195
I1400
sS'S1NB'
p196
I50
sS'S2LB'
p197
I0
sS'S2NB'
p198
I50
sS'S1LB'
p199
I0
sS'S2UB'
p200
F400000.0
ssS'nerix_150916_1201.root'
p201
(dp202
S'S1UB'
p203
F400.0
sS'S1NB'
p204
I25
sS'S2LB'
p205
F10000.0
sS'S2NB'
p206
I25
sS'S1LB'
p207
F180.0
sS'S2UB'
p208
F34000.0
ssS'nerix_151201_1232.root'
p209
(dp210
S'S1UB'
p211
I3500
sS'S1NB'
p212
I80
sS'S2LB'
p213
I0
sS'S2NB'
p214
I80
sS'S1LB'
p215
I0
sS'S2UB'
p216
F1100000.0
ssS'nerix_151109_1952.root'
p217
(dp218
S'S1UB'
p219
I1400
sS'S1NB'
p220
I50
sS'S2LB'
p221
I0
sS'S2NB'
p222
I50
sS'S1LB'
p223
I0
sS'S2UB'
p224
F400000.0
ssS'nerix_151211_0926.root'
p225
(dp226
S'S1UB'
p227
F1150.0
sS'S1NB'
p228
I25
sS'S2LB'
p229
F150000.0
sS'S2NB'
p230
I25
sS'S1LB'
p231
F600.0
sS'S2UB'
p232
F250000.0
ssS'nerix_151006_1522.root'
p233
(dp234
S'S1UB'
p235
F450.0
sS'S1NB'
p236
I25
sS'S2LB'
p237
I0
sS'S2NB'
p238
I25
sS'S1LB'
p239
I0
sS'S2UB'
p240
F50000.0
ssS'nerix_151004_1358.root'
p241
(dp242
S'S1UB'
p243
F400.0
sS'S1NB'
p244
I25
sS'S2LB'
p245
F20000.0
sS'S2NB'
p246
I25
sS'S1LB'
p247
F100.0
sS'S2UB'
p248
F70000.0
ssS'nerix_151119_1447.root'
p249
(dp250
S'S1UB'
p251
I3500
sS'S1NB'
p252
I50
sS'S2LB'
p253
I0
sS'S2NB'
p254
I50
sS'S1LB'
p255
I0
sS'S2UB'
p256
F1100000.0
ssS'nerix_151005_1505.root'
p257
(dp258
S'S1UB'
p259
F900.0
sS'S1NB'
p260
I25
sS'S2LB'
p261
F50000.0
sS'S2NB'
p262
I25
sS'S1LB'
p263
F350.0
sS'S2UB'
p264
F250000.0
ssS'nerix_151203_1549.root'
p265
(dp266
S'S1UB'
p267
I3500
sS'S1NB'
p268
I80
sS'S2LB'
p269
I0
sS'S2NB'
p270
I80
sS'S1LB'
p271
I0
sS'S2UB'
p272
F1100000.0
ssS'nerix_151123_1309.root'
p273
(dp274
S'S1UB'
p275
F450.0
sS'S1NB'
p276
I15
sS'S2LB'
p277
I0
sS'S2NB'
p278
I15
sS'S1LB'
p279
I0
sS'S2UB'
p280
F40000.0
ssS'nerix_150902_1537.root'
p281
(dp282
S'S1UB'
p283
F320.0
sS'S1NB'
p284
I25
sS'S2LB'
p285
F14000.0
sS'S2NB'
p286
I25
sS'S1LB'
p287
F120.0
sS'S2UB'
p288
F32000.0
ssS'nerix_151006_1235.root'
p289
(dp290
S'S1UB'
p291
F450.0
sS'S1NB'
p292
I25
sS'S2LB'
p293
I0
sS'S2NB'
p294
I25
sS'S1LB'
p295
F100.0
sS'S2UB'
p296
F60000.0
ssS'nerix_150914_1416.root'
p297
(dp298
S'S1UB'
p299
F400.0
sS'S1NB'
p300
I25
sS'S2LB'
p301
F10000.0
sS'S2NB'
p302
I25
sS'S1LB'
p303
F120.0
sS'S2UB'
p304
F36000.0
ssS'nerix_151210_1341.root'
p305
(dp306
S'S1UB'
p307
F4000.0
sS'S1NB'
p308
I25
sS'S2LB'
p309
F600000.0
sS'S2NB'
p310
I25
sS'S1LB'
p311
F2200.0
sS'S2UB'
p312
F1050000.0
ssS'nerix_151214_1344.root'
p313
(dp314
S'S1UB'
p315
I3500
sS'S1NB'
p316
I80
sS'S2LB'
p317
I0
sS'S2NB'
p318
I80
sS'S1LB'
p319
I0
sS'S2UB'
p320
F1100000.0
ssS'nerix_151029_0923.root'
p321
(dp322
S'S1UB'
p323
F370.0
sS'S1NB'
p324
I15
sS'S2LB'
p325
F15000.0
sS'S2NB'
p326
I15
sS'S1LB'
p327
F150.0
sS'S2UB'
p328
F45000.0
ssS'nerix_150930_1708.root'
p329
(dp330
S'S1UB'
p331
F800.0
sS'S1NB'
p332
I25
sS'S2LB'
p333
F50000.0
sS'S2NB'
p334
I25
sS'S1LB'
p335
F350.0
sS'S2UB'
p336
F200000.0
ssS'nerix_151201_1344.root'
p337
(dp338
S'S1UB'
p339
I3500
sS'S1NB'
p340
I80
sS'S2LB'
p341
I0
sS'S2NB'
p342
I80
sS'S1LB'
p343
I0
sS'S2UB'
p344
F1100000.0
ssS'nerix_151222_1227.root'
p345
(dp346
S'S1UB'
p347
I3500
sS'S1NB'
p348
I80
sS'S2LB'
p349
I0
sS'S2NB'
p350
I80
sS'S1LB'
p351
I0
sS'S2UB'
p352
F1100000.0
ssS'nerix_150915_1502.root'
p353
(dp354
S'S1UB'
p355
F400.0
sS'S1NB'
p356
I20
sS'S2LB'
p357
F20000.0
sS'S2NB'
p358
I20
sS'S1LB'
p359
F100.0
sS'S2UB'
p360
F40000.0
ssS'nerix_150916_1559.root'
p361
(dp362
S'S1UB'
p363
F420.0
sS'S1NB'
p364
I25
sS'S2LB'
p365
F14000.0
sS'S2NB'
p366
I25
sS'S1LB'
p367
F160.0
sS'S2UB'
p368
F40000.0
ssS'nerix_151028_1205.root'
p369
(dp370
S'S1UB'
p371
F1300.0
sS'S1NB'
p372
I25
sS'S2LB'
p373
F20000.0
sS'S2NB'
p374
I25
sS'S1LB'
p375
F500.0
sS'S2UB'
p376
F90000.0
ssS'nerix_151216_1419.root'
p377
(dp378
S'S1UB'
p379
I1400
sS'S1NB'
p380
I50
sS'S2LB'
p381
I0
sS'S2NB'
p382
I50
sS'S1LB'
p383
I0
sS'S2UB'
p384
F400000.0
ssS'nerix_151002_1318.root'
p385
(dp386
S'S1UB'
p387
F1400.0
sS'S1NB'
p388
I25
sS'S2LB'
p389
F70000.0
sS'S2NB'
p390
I25
sS'S1LB'
p391
F500.0
sS'S2UB'
p392
F350000.0
ssS'nerix_151026_1421.root'
p393
(dp394
S'S1UB'
p395
F1200.0
sS'S1NB'
p396
I25
sS'S2LB'
p397
F140000.0
sS'S2NB'
p398
I25
sS'S1LB'
p399
F450.0
sS'S2UB'
p400
F350000.0
ssS'nerix_151214_1244.root'
p401
(dp402
S'S1UB'
p403
I3500
sS'S1NB'
p404
I80
sS'S2LB'
p405
I0
sS'S2NB'
p406
I80
sS'S1LB'
p407
I0
sS'S2UB'
p408
F1100000.0
ssS'nerix_151201_1519.root'
p409
(dp410
S'S1UB'
p411
F300.0
sS'S1NB'
p412
I25
sS'S2LB'
p413
F5000.0
sS'S2NB'
p414
I25
sS'S1LB'
p415
F100.0
sS'S2UB'
p416
F30000.0
ssS'nerix_151216_1251.root'
p417
(dp418
S'S1UB'
p419
I1400
sS'S1NB'
p420
I50
sS'S2LB'
p421
I0
sS'S2NB'
p422
I50
sS'S1LB'
p423
I0
sS'S2UB'
p424
F400000.0
ssS'nerix_151215_1524.root'
p425
(dp426
S'S1UB'
p427
F3000.0
sS'S1NB'
p428
I50
sS'S2LB'
p429
F500000.0
sS'S2NB'
p430
I50
sS'S1LB'
p431
F1700.0
sS'S2UB'
p432
F750000.0
ssS'nerix_151211_1037.root'
p433
(dp434
S'S1UB'
p435
F900.0
sS'S1NB'
p436
I25
sS'S2LB'
p437
F100000.0
sS'S2NB'
p438
I25
sS'S1LB'
p439
F400.0
sS'S2UB'
p440
F170000.0
ssS'nerix_151203_1345.root'
p441
(dp442
S'S1UB'
p443
I3500
sS'S1NB'
p444
I80
sS'S2LB'
p445
I0
sS'S2NB'
p446
I80
sS'S1LB'
p447
I0
sS'S2UB'
p448
F1100000.0
ssS'nerix_150915_1332.root'
p449
(dp450
S'S1UB'
p451
F400.0
sS'S1NB'
p452
I20
sS'S2LB'
p453
F18000.0
sS'S2NB'
p454
I20
sS'S1LB'
p455
F100.0
sS'S2UB'
p456
F40000.0
ssS'nerix_151207_1557.root'
p457
(dp458
S'S1UB'
p459
I3500
sS'S1NB'
p460
I80
sS'S2LB'
p461
I0
sS'S2NB'
p462
I80
sS'S1LB'
p463
I0
sS'S2UB'
p464
F1100000.0
ssS'nerix_151006_0949.root'
p465
(dp466
S'S1UB'
p467
F1000.0
sS'S1NB'
p468
I25
sS'S2LB'
p469
F220000.0
sS'S2NB'
p470
I25
sS'S1LB'
p471
F400.0
sS'S2UB'
p472
F360000.0
ssS'nerix_151210_1531.root'
p473
(dp474
S'S1UB'
p475
F7500.0
sS'S1NB'
p476
I25
sS'S2LB'
p477
F1200000.0
sS'S2NB'
p478
I25
sS'S1LB'
p479
F4000.0
sS'S2UB'
p480
F1900000.0
ssS'nerix_150902_1643.root'
p481
(dp482
S'S1UB'
p483
F500.0
sS'S1NB'
p484
I25
sS'S2LB'
p485
F26000.0
sS'S2NB'
p486
I25
sS'S1LB'
p487
F250.0
sS'S2UB'
p488
F55000.0
ssS'nerix_151203_1119.root'
p489
(dp490
S'S1UB'
p491
I3500
sS'S1NB'
p492
I80
sS'S2LB'
p493
I0
sS'S2NB'
p494
I80
sS'S1LB'
p495
I0
sS'S2UB'
p496
F1100000.0
ssS'nerix_151214_1126.root'
p497
(dp498
S'S1UB'
p499
I3500
sS'S1NB'
p500
I80
sS'S2LB'
p501
I0
sS'S2NB'
p502
I80
sS'S1LB'
p503
I0
sS'S2UB'
p504
F1100000.0
ssS'nerix_150914_1519.root'
p505
(dp506
S'S1UB'
p507
F400.0
sS'S1NB'
p508
I15
sS'S2LB'
p509
F15000.0
sS'S2NB'
p510
I15
sS'S1LB'
p511
F150.0
sS'S2UB'
p512
F38000.0
ssS'nerix_151209_1353.root'
p513
(dp514
S'S1UB'
p515
F1000.0
sS'S1NB'
p516
I25
sS'S2LB'
p517
F50000.0
sS'S2NB'
p518
I25
sS'S1LB'
p519
F400.0
sS'S2UB'
p520
F350000.0
ssS'nerix_151005_1536.root'
p521
(dp522
S'S1UB'
p523
F900.0
sS'S1NB'
p524
I25
sS'S2LB'
p525
F50000.0
sS'S2NB'
p526
I25
sS'S1LB'
p527
F300.0
sS'S2UB'
p528
F250000.0
ssS'nerix_151222_1320.root'
p529
(dp530
S'S1UB'
p531
I3500
sS'S1NB'
p532
I80
sS'S2LB'
p533
I0
sS'S2NB'
p534
I80
sS'S1LB'
p535
I0
sS'S2UB'
p536
F1100000.0
ssS'nerix_150917_1039.root'
p537
(dp538
S'S1UB'
p539
F400.0
sS'S1NB'
p540
I25
sS'S2LB'
p541
F20000.0
sS'S2NB'
p542
I25
sS'S1LB'
p543
F120.0
sS'S2UB'
p544
F46000.0
ssS'nerix_150930_1456.root'
p545
(dp546
S'S1UB'
p547
F850.0
sS'S1NB'
p548
I25
sS'S2LB'
p549
F50000.0
sS'S2NB'
p550
I25
sS'S1LB'
p551
F400.0
sS'S2UB'
p552
F180000.0
ssS'nerix_151006_1612.root'
p553
(dp554
S'S1UB'
p555
F400.0
sS'S1NB'
p556
I25
sS'S2LB'
p557
I0
sS'S2NB'
p558
I25
sS'S1LB'
p559
F150.0
sS'S2UB'
p560
F60000.0
ssS'nerix_150914_1450.root'
p561
(dp562
S'S1UB'
p563
F400.0
sS'S1NB'
p564
I25
sS'S2LB'
p565
F12000.0
sS'S2NB'
p566
I25
sS'S1LB'
p567
F120.0
sS'S2UB'
p568
F35000.0
ssS'nerix_151207_1619.root'
p569
(dp570
S'S1UB'
p571
I3500
sS'S1NB'
p572
I80
sS'S2LB'
p573
I0
sS'S2NB'
p574
I80
sS'S1LB'
p575
I0
sS'S2UB'
p576
F1100000.0
ssS'nerix_150928_1338.root'
p577
(dp578
S'S1UB'
p579
F340.0
sS'S1NB'
p580
I25
sS'S2LB'
p581
F20000.0
sS'S2NB'
p582
I25
sS'S1LB'
p583
F100.0
sS'S2UB'
p584
F85000.0
ssS'nerix_151102_1232.root'
p585
(dp586
S'S1UB'
p587
F1200.0
sS'S1NB'
p588
I15
sS'S2LB'
p589
F100000.0
sS'S2NB'
p590
I15
sS'S1LB'
p591
F550.0
sS'S2UB'
p592
F280000.0
ssS'nerix_150915_1435.root'
p593
(dp594
S'S1UB'
p595
F400.0
sS'S1NB'
p596
I25
sS'S2LB'
p597
F18000.0
sS'S2NB'
p598
I25
sS'S1LB'
p599
F100.0
sS'S2UB'
p600
F45000.0
ssS'nerix_151209_1240.root'
p601
(dp602
S'S1UB'
p603
F1100.0
sS'S1NB'
p604
I25
sS'S2LB'
p605
F50000.0
sS'S2NB'
p606
I25
sS'S1LB'
p607
F400.0
sS'S2UB'
p608
F300000.0
ssS'nerix_151124_1719.root'
p609
(dp610
S'S1UB'
p611
I1400
sS'S1NB'
p612
I50
sS'S2LB'
p613
I0
sS'S2NB'
p614
I50
sS'S1LB'
p615
I0
sS'S2UB'
p616
F400000.0
ssS'nerix_151210_1437.root'
p617
(dp618
S'S1UB'
p619
F5600.0
sS'S1NB'
p620
I25
sS'S2LB'
p621
F900000.0
sS'S2NB'
p622
I25
sS'S1LB'
p623
F3000.0
sS'S2UB'
p624
F1400000.0
ssS'nerix_151210_1646.root'
p625
(dp626
S'S1UB'
p627
F10000.0
sS'S1NB'
p628
I25
sS'S2LB'
p629
F1700000.0
sS'S2NB'
p630
I25
sS'S1LB'
p631
F5500.0
sS'S2UB'
p632
F2500000.0
ssS'nerix_151005_1436.root'
p633
(dp634
S'S1UB'
p635
F1000.0
sS'S1NB'
p636
I25
sS'S2LB'
p637
F45000.0
sS'S2NB'
p638
I25
sS'S1LB'
p639
F400.0
sS'S2UB'
p640
F220000.0
ssS'nerix_150914_1236.root'
p641
(dp642
S'S1UB'
p643
F400.0
sS'S1NB'
p644
I25
sS'S2LB'
p645
F20000.0
sS'S2NB'
p646
I25
sS'S1LB'
p647
F100.0
sS'S2UB'
p648
F44000.0
ssS'nerix_151005_1408.root'
p649
(dp650
S'S1UB'
p651
F1100.0
sS'S1NB'
p652
I25
sS'S2LB'
p653
F30000.0
sS'S2NB'
p654
I25
sS'S1LB'
p655
F400.0
sS'S2UB'
p656
F200000.0
ssS'nerix_151216_1139.root'
p657
(dp658
S'S1UB'
p659
I1400
sS'S1NB'
p660
I50
sS'S2LB'
p661
I0
sS'S2NB'
p662
I50
sS'S1LB'
p663
I0
sS'S2UB'
p664
F400000.0
ssS'nerix_151006_1150.root'
p665
(dp666
S'S1UB'
p667
F450.0
sS'S1NB'
p668
I25
sS'S2LB'
p669
F5000.0
sS'S2NB'
p670
I25
sS'S1LB'
p671
F100.0
sS'S2UB'
p672
F60000.0
ssS'nerix_151210_1237.root'
p673
(dp674
S'S1UB'
p675
F1600.0
sS'S1NB'
p676
I25
sS'S2LB'
p677
F230000.0
sS'S2NB'
p678
I25
sS'S1LB'
p679
F900.0
sS'S2UB'
p680
F400000.0
ssS'nerix_151119_1506.root'
p681
(dp682
S'S1UB'
p683
I3500
sS'S1NB'
p684
I50
sS'S2LB'
p685
I0
sS'S2NB'
p686
I50
sS'S1LB'
p687
I0
sS'S2UB'
p688
F1100000.0
ssS'nerix_151123_1347.root'
p689
(dp690
S'S1UB'
p691
F400.0
sS'S1NB'
p692
I15
sS'S2LB'
p693
I0
sS'S2NB'
p694
I15
sS'S1LB'
p695
I0
sS'S2UB'
p696
F50000.0
ssS'nerix_150928_1424.root'
p697
(dp698
S'S1UB'
p699
F300.0
sS'S1NB'
p700
I25
sS'S2LB'
p701
F20000.0
sS'S2NB'
p702
I25
sS'S1LB'
p703
F100.0
sS'S2UB'
p704
F90000.0
ssS'nerix_150915_1405.root'
p705
(dp706
S'S1UB'
p707
F400.0
sS'S1NB'
p708
I20
sS'S2LB'
p709
F20000.0
sS'S2NB'
p710
I20
sS'S1LB'
p711
F100.0
sS'S2UB'
p712
F40000.0
ssS'nerix_151222_1349.root'
p713
(dp714
S'S1UB'
p715
I3500
sS'S1NB'
p716
I80
sS'S2LB'
p717
I0
sS'S2NB'
p718
I80
sS'S1LB'
p719
I0
sS'S2UB'
p720
F1100000.0
ssS'nerix_150914_1719.root'
p721
(dp722
S'S1UB'
p723
F400.0
sS'S1NB'
p724
I15
sS'S2LB'
p725
F20000.0
sS'S2NB'
p726
I15
sS'S1LB'
p727
F120.0
sS'S2UB'
p728
F45000.0
ssS'nerix_151203_1317.root'
p729
(dp730
S'S1UB'
p731
I3500
sS'S1NB'
p732
I80
sS'S2LB'
p733
I0
sS'S2NB'
p734
I80
sS'S1LB'
p735
I0
sS'S2UB'
p736
F1100000.0
ssS'nerix_151117_1336.root'
p737
(dp738
S'S1UB'
p739
F400.0
sS'S1NB'
p740
I15
sS'S2LB'
p741
I0
sS'S2NB'
p742
I15
sS'S1LB'
p743
F100.0
sS'S2UB'
p744
F40000.0
ssS'nerix_151207_1536.root'
p745
(dp746
S'S1UB'
p747
I3500
sS'S1NB'
p748
I80
sS'S2LB'
p749
I0
sS'S2NB'
p750
I80
sS'S1LB'
p751
I0
sS'S2UB'
p752
F1100000.0
ssS'nerix_150902_1446.root'
p753
(dp754
S'S1UB'
p755
F400.0
sS'S1NB'
p756
I25
sS'S2LB'
p757
F20000.0
sS'S2NB'
p758
I25
sS'S1LB'
p759
F180.0
sS'S2UB'
p760
F45000.0
ssS'nerix_151203_1239.root'
p761
(dp762
S'S1UB'
p763
I3500
sS'S1NB'
p764
I80
sS'S2LB'
p765
I0
sS'S2NB'
p766
I80
sS'S1LB'
p767
I0
sS'S2UB'
p768
F1100000.0
ssS'nerix_151006_1100.root'
p769
(dp770
S'S1UB'
p771
F500.0
sS'S1NB'
p772
I25
sS'S2LB'
p773
F10000.0
sS'S2NB'
p774
I25
sS'S1LB'
p775
F100.0
sS'S2UB'
p776
F60000.0
ssS'nerix_151119_1527.root'
p777
(dp778
S'S1UB'
p779
I3500
sS'S1NB'
p780
I80
sS'S2LB'
p781
I0
sS'S2NB'
p782
I80
sS'S1LB'
p783
I0
sS'S2UB'
p784
F1100000.0
ssS'nerix_151006_1547.root'
p785
(dp786
S'S1UB'
p787
F500.0
sS'S1NB'
p788
I25
sS'S2LB'
p789
I0
sS'S2NB'
p790
I25
sS'S1LB'
p791
F100.0
sS'S2UB'
p792
F55000.0
ssS'nerix_150904_1151.root'
p793
(dp794
S'S1UB'
p795
F670.0
sS'S1NB'
p796
I25
sS'S2LB'
p797
F36000.0
sS'S2NB'
p798
I25
sS'S1LB'
p799
F350.0
sS'S2UB'
p800
F65000.0
ssS'nerix_150930_1604.root'
p801
(dp802
S'S1UB'
p803
F1000.0
sS'S1NB'
p804
I25
sS'S2LB'
p805
F30000.0
sS'S2NB'
p806
I25
sS'S1LB'
p807
F400.0
sS'S2UB'
p808
F150000.0
ssS'nerix_150928_1257.root'
p809
(dp810
S'S1UB'
p811
F340.0
sS'S1NB'
p812
I25
sS'S2LB'
p813
F20000.0
sS'S2NB'
p814
I25
sS'S1LB'
p815
F150.0
sS'S2UB'
p816
F75000.0
ssS'nerix_150902_1559.root'
p817
(dp818
S'S1UB'
p819
F360.0
sS'S1NB'
p820
I25
sS'S2LB'
p821
F16000.0
sS'S2NB'
p822
I25
sS'S1LB'
p823
F140.0
sS'S2UB'
p824
F36000.0
ssS'nerix_150916_1342.root'
p825
(dp826
S'S1UB'
p827
F400.0
sS'S1NB'
p828
I25
sS'S2LB'
p829
F14000.0
sS'S2NB'
p830
I25
sS'S1LB'
p831
F140.0
sS'S2UB'
p832
F36000.0
ssS'nerix_151201_1306.root'
p833
(dp834
S'S1UB'
p835
I3500
sS'S1NB'
p836
I80
sS'S2LB'
p837
I0
sS'S2NB'
p838
I80
sS'S1LB'
p839
I0
sS'S2UB'
p840
F1100000.0
ssS'nerix_150928_1150.root'
p841
(dp842
S'S1UB'
p843
F430.0
sS'S1NB'
p844
I25
sS'S2LB'
p845
F10000.0
sS'S2NB'
p846
I25
sS'S1LB'
p847
F180.0
sS'S2UB'
p848
F60000.0
ssS'nerix_151209_1126.root'
p849
(dp850
S'S1UB'
p851
F1200.0
sS'S1NB'
p852
I35
sS'S2LB'
p853
F50000.0
sS'S2NB'
p854
I35
sS'S1LB'
p855
F400.0
sS'S2UB'
p856
F300000.0
ssS'nerix_151210_0930.root'
p857
(dp858
S'S1UB'
p859
F3000.0
sS'S1NB'
p860
I25
sS'S2LB'
p861
F500000.0
sS'S2NB'
p862
I25
sS'S1LB'
p863
F1500.0
sS'S2UB'
p864
F750000.0
ssS'nerix_151203_1438.root'
p865
(dp866
S'S1UB'
p867
I3500
sS'S1NB'
p868
I80
sS'S2LB'
p869
I0
sS'S2NB'
p870
I80
sS'S1LB'
p871
I0
sS'S2UB'
p872
F1100000.0
ssS'nerix_150914_1750.root'
p873
(dp874
S'S1UB'
p875
F300.0
sS'S1NB'
p876
I15
sS'S2LB'
p877
F24000.0
sS'S2NB'
p878
I15
sS'S1LB'
p879
F120.0
sS'S2UB'
p880
F50000.0
ssS'nerix_151209_1008.root'
p881
(dp882
S'S1UB'
p883
F1200.0
sS'S1NB'
p884
I25
sS'S2LB'
p885
F60000.0
sS'S2NB'
p886
I25
sS'S1LB'
p887
F600.0
sS'S2UB'
p888
F250000.0
ssS'nerix_151117_1445.root'
p889
(dp890
S'S1UB'
p891
F350.0
sS'S1NB'
p892
I25
sS'S2LB'
p893
I0
sS'S2NB'
p894
I25
sS'S1LB'
p895
F100.0
sS'S2UB'
p896
F60000.0
ssS'nerix_150902_1228.root'
p897
(dp898
S'S1UB'
p899
F280.0
sS'S1NB'
p900
I25
sS'S2LB'
p901
F10000.0
sS'S2NB'
p902
I25
sS'S1LB'
p903
F70.0
sS'S2UB'
p904
F25000.0
ssS'nerix_151117_1403.root'
p905
(dp906
S'S1UB'
p907
F400.0
sS'S1NB'
p908
I10
sS'S2LB'
p909
I0
sS'S2NB'
p910
I10
sS'S1LB'
p911
F50.0
sS'S2UB'
p912
F50000.0
ssS'nerix_151110_0213.root'
p913
(dp914
S'S1UB'
p915
I1400
sS'S1NB'
p916
I50
sS'S2LB'
p917
I0
sS'S2NB'
p918
I50
sS'S1LB'
p919
I0
sS'S2UB'
p920
F400000.0
ssS'nerix_150917_0941.root'
p921
(dp922
S'S1UB'
p923
F400.0
sS'S1NB'
p924
I25
sS'S2LB'
p925
F18000.0
sS'S2NB'
p926
I25
sS'S1LB'
p927
F140.0
sS'S2UB'
p928
F42000.0
ssS'nerix_151203_1221.root'
p929
(dp930
S'S1UB'
p931
I3500
sS'S1NB'
p932
I80
sS'S2LB'
p933
I0
sS'S2NB'
p934
I80
sS'S1LB'
p935
I0
sS'S2UB'
p936
F1100000.0
ssS'nerix_151222_1253.root'
p937
(dp938
S'S1UB'
p939
I3500
sS'S1NB'
p940
I80
sS'S2LB'
p941
I0
sS'S2NB'
p942
I80
sS'S1LB'
p943
I0
sS'S2UB'
p944
F1100000.0
ssS'nerix_150902_1620.root'
p945
(dp946
S'S1UB'
p947
F500.0
sS'S1NB'
p948
I25
sS'S2LB'
p949
F22000.0
sS'S2NB'
p950
I25
sS'S1LB'
p951
F200.0
sS'S2UB'
p952
F50000.0
ssS'nerix_150914_1549.root'
p953
(dp954
S'S1UB'
p955
F400.0
sS'S1NB'
p956
I20
sS'S2LB'
p957
F14000.0
sS'S2NB'
p958
I20
sS'S1LB'
p959
F120.0
sS'S2UB'
p960
F36000.0
ssS'nerix_151124_2303.root'
p961
(dp962
S'S1UB'
p963
I1400
sS'S1NB'
p964
I50
sS'S2LB'
p965
I0
sS'S2NB'
p966
I50
sS'S1LB'
p967
I0
sS'S2UB'
p968
F400000.0
ssS'nerix_151029_1026.root'
p969
(dp970
S'S1UB'
p971
F450.0
sS'S1NB'
p972
I15
sS'S2LB'
p973
F10000.0
sS'S2NB'
p974
I15
sS'S1LB'
p975
F100.0
sS'S2UB'
p976
F50000.0
ssS'nerix_151214_1313.root'
p977
(dp978
S'S1UB'
p979
I3500
sS'S1NB'
p980
I80
sS'S2LB'
p981
I0
sS'S2NB'
p982
I80
sS'S1LB'
p983
I0
sS'S2UB'
p984
F1100000.0
ssS'nerix_151028_1140.root'
p985
(dp986
S'S1UB'
p987
F1700.0
sS'S1NB'
p988
I25
sS'S2LB'
p989
F10000.0
sS'S2NB'
p990
I25
sS'S1LB'
p991
F500.0
sS'S2UB'
p992
F80000.0
ssS'nerix_151207_1514.root'
p993
(dp994
S'S1UB'
p995
I3500
sS'S1NB'
p996
I80
sS'S2LB'
p997
I0
sS'S2NB'
p998
I80
sS'S1LB'
p999
I0
sS'S2UB'
p1000
F1100000.0
ssS'nerix_151203_1156.root'
p1001
(dp1002
S'S1UB'
p1003
I3500
sS'S1NB'
p1004
I80
sS'S2LB'
p1005
I0
sS'S2NB'
p1006
I80
sS'S1LB'
p1007
I0
sS'S2UB'
p1008
F1100000.0
ssS'nerix_150902_1328.root'
p1009
(dp1010
S'S1UB'
p1011
F280.0
sS'S1NB'
p1012
I10
sS'S2LB'
p1013
F20000.0
sS'S2NB'
p1014
I10
sS'S1LB'
p1015
F150.0
sS'S2UB'
p1016
F35000.0
ssS'nerix_151125_0929.root'
p1017
(dp1018
S'S1UB'
p1019
I1400
sS'S1NB'
p1020
I50
sS'S2LB'
p1021
I0
sS'S2NB'
p1022
I50
sS'S1LB'
p1023
I0
sS'S2UB'
p1024
F400000.0
ssS'nerix_151119_1546.root'
p1025
(dp1026
S'S1UB'
p1027
I3500
sS'S1NB'
p1028
I80
sS'S2LB'
p1029
I0
sS'S2NB'
p1030
I80
sS'S1LB'
p1031
I0
sS'S2UB'
p1032
F1100000.0
ssS'nerix_151123_1522.root'
p1033
(dp1034
S'S1UB'
p1035
F850.0
sS'S1NB'
p1036
I10
sS'S2LB'
p1037
F150000.0
sS'S2NB'
p1038
I10
sS'S1LB'
p1039
F350.0
sS'S2UB'
p1040
F280000.0
ssS'nerix_151004_1458.root'
p1041
(dp1042
S'S1UB'
p1043
F450.0
sS'S1NB'
p1044
I25
sS'S2LB'
p1045
I0
sS'S2NB'
p1046
I25
sS'S1LB'
p1047
F150.0
sS'S2UB'
p1048
F50000.0
ssS'nerix_151125_0625.root'
p1049
(dp1050
S'S1UB'
p1051
I1400
sS'S1NB'
p1052
I50
sS'S2LB'
p1053
I0
sS'S2NB'
p1054
I50
sS'S1LB'
p1055
I0
sS'S2UB'
p1056
F400000.0
ssS'nerix_151026_1342.root'
p1057
(dp1058
S'S1UB'
p1059
F1200.0
sS'S1NB'
p1060
I25
sS'S2LB'
p1061
F140000.0
sS'S2NB'
p1062
I25
sS'S1LB'
p1063
F500.0
sS'S2UB'
p1064
F300000.0
ssS'nerix_151109_2204.root'
p1065
(dp1066
S'S1UB'
p1067
I1400
sS'S1NB'
p1068
I50
sS'S2LB'
p1069
I0
sS'S2NB'
p1070
I50
sS'S1LB'
p1071
I0
sS'S2UB'
p1072
F400000.0
ssS'nerix_151006_1404.root'
p1073
(dp1074
S'S1UB'
p1075
F450.0
sS'S1NB'
p1076
I25
sS'S2LB'
p1077
F5000.0
sS'S2NB'
p1078
I25
sS'S1LB'
p1079
F150.0
sS'S2UB'
p1080
F50000.0
ssS'nerix_151214_1213.root'
p1081
(dp1082
S'S1UB'
p1083
I3500
sS'S1NB'
p1084
I80
sS'S2LB'
p1085
I0
sS'S2NB'
p1086
I80
sS'S1LB'
p1087
I0
sS'S2UB'
p1088
F1100000.0
ssS'nerix_150917_1202.root'
p1089
(dp1090
S'S1UB'
p1091
F350.0
sS'S1NB'
p1092
I25
sS'S2LB'
p1093
F22000.0
sS'S2NB'
p1094
I25
sS'S1LB'
p1095
F100.0
sS'S2UB'
p1096
F55000.0
ssS'nerix_151026_1506.root'
p1097
(dp1098
S'S1UB'
p1099
F1200.0
sS'S1NB'
p1100
I25
sS'S2LB'
p1101
F150000.0
sS'S2NB'
p1102
I25
sS'S1LB'
p1103
F400.0
sS'S2UB'
p1104
F350000.0
ssS'nerix_151216_1018.root'
p1105
(dp1106
S'S1UB'
p1107
I1400
sS'S1NB'
p1108
I50
sS'S2LB'
p1109
I0
sS'S2NB'
p1110
I50
sS'S1LB'
p1111
I0
sS'S2UB'
p1112
F400000.0
ssS'nerix_151006_1454.root'
p1113
(dp1114
S'S1UB'
p1115
F450.0
sS'S1NB'
p1116
I25
sS'S2LB'
p1117
I0
sS'S2NB'
p1118
I25
sS'S1LB'
p1119
I0
sS'S2UB'
p1120
F50000.0
ssS'nerix_151006_1703.root'
p1121
(dp1122
S'S1UB'
p1123
F400.0
sS'S1NB'
p1124
I25
sS'S2LB'
p1125
F18000.0
sS'S2NB'
p1126
I25
sS'S1LB'
p1127
F180.0
sS'S2UB'
p1128
F60000.0
ssS'nerix_151102_1355.root'
p1129
(dp1130
S'S1UB'
p1131
F1100.0
sS'S1NB'
p1132
I15
sS'S2LB'
p1133
F150000.0
sS'S2NB'
p1134
I15
sS'S1LB'
p1135
F500.0
sS'S2UB'
p1136
F300000.0
ssS'nerix_151201_1327.root'
p1137
(dp1138
S'S1UB'
p1139
I3500
sS'S1NB'
p1140
I80
sS'S2LB'
p1141
I0
sS'S2NB'
p1142
I80
sS'S1LB'
p1143
I0
sS'S2UB'
p1144
F1100000.0
ssS'nerix_151203_1411.root'
p1145
(dp1146
S'S1UB'
p1147
I3500
sS'S1NB'
p1148
I80
sS'S2LB'
p1149
I0
sS'S2NB'
p1150
I80
sS'S1LB'
p1151
I0
sS'S2UB'
p1152
F1100000.0
ssS'nerix_151019_1502.root'
p1153
(dp1154
S'S1UB'
p1155
F1300.0
sS'S1NB'
p1156
I25
sS'S2LB'
p1157
F130000.0
sS'S2NB'
p1158
I25
sS'S1LB'
p1159
F650.0
sS'S2UB'
p1160
F280000.0
ssS'nerix_150930_1346.root'
p1161
(dp1162
S'S1UB'
p1163
F750.0
sS'S1NB'
p1164
I25
sS'S2LB'
p1165
F50000.0
sS'S2NB'
p1166
I25
sS'S1LB'
p1167
F300.0
sS'S2UB'
p1168
F190000.0
ssS'nerix_150914_1647.root'
p1169
(dp1170
S'S1UB'
p1171
F400.0
sS'S1NB'
p1172
I15
sS'S2LB'
p1173
F15000.0
sS'S2NB'
p1174
I15
sS'S1LB'
p1175
F120.0
sS'S2UB'
p1176
F43000.0
ssS'nerix_151019_1426.root'
p1177
(dp1178
S'S1UB'
p1179
F1300.0
sS'S1NB'
p1180
I25
sS'S2LB'
p1181
F100000.0
sS'S2NB'
p1182
I25
sS'S1LB'
p1183
F800.0
sS'S2UB'
p1184
F280000.0
ssS'nerix_151026_1253.root'
p1185
(dp1186
S'S1UB'
p1187
F1250.0
sS'S1NB'
p1188
I25
sS'S2LB'
p1189
F100000.0
sS'S2NB'
p1190
I25
sS'S1LB'
p1191
F600.0
sS'S2UB'
p1192
F300000.0
ssS'nerix_151004_1427.root'
p1193
(dp1194
S'S1UB'
p1195
F500.0
sS'S1NB'
p1196
I25
sS'S2LB'
p1197
F10000.0
sS'S2NB'
p1198
I25
sS'S1LB'
p1199
F150.0
sS'S2UB'
p1200
F50000.0
ssS'nerix_151006_1637.root'
p1201
(dp1202
S'S1UB'
p1203
F400.0
sS'S1NB'
p1204
I25
sS'S2LB'
p1205
I0
sS'S2NB'
p1206
I25
sS'S1LB'
p1207
F200.0
sS'S2UB'
p1208
F70000.0
ssS'nerix_151002_1517.root'
p1209
(dp1210
S'S1UB'
p1211
F1000.0
sS'S1NB'
p1212
I25
sS'S2LB'
p1213
F20000.0
sS'S2NB'
p1214
I25
sS'S1LB'
p1215
F250.0
sS'S2UB'
p1216
F200000.0
ssS'nerix_151004_1525.root'
p1217
(dp1218
S'S1UB'
p1219
F400.0
sS'S1NB'
p1220
I25
sS'S2LB'
p1221
F10000.0
sS'S2NB'
p1222
I25
sS'S1LB'
p1223
F150.0
sS'S2UB'
p1224
F60000.0
ssS'nerix_151110_0650.root'
p1225
(dp1226
S'S1UB'
p1227
I1400
sS'S1NB'
p1228
I50
sS'S2LB'
p1229
I0
sS'S2NB'
p1230
I50
sS'S1LB'
p1231
I0
sS'S2UB'
p1232
F400000.0
ssS'nerix_151210_1130.root'
p1233
(dp1234
S'S1UB'
p1235
F2300.0
sS'S1NB'
p1236
I25
sS'S2LB'
p1237
F300000.0
sS'S2NB'
p1238
I25
sS'S1LB'
p1239
F1100.0
sS'S2UB'
p1240
F550000.0
ssS'nerix_150928_1622.root'
p1241
(dp1242
S'S1UB'
p1243
F360.0
sS'S1NB'
p1244
I25
sS'S2LB'
p1245
F20000.0
sS'S2NB'
p1246
I25
sS'S1LB'
p1247
F120.0
sS'S2UB'
p1248
F80000.0
ssS'nerix_151002_1143.root'
p1249
(dp1250
S'S1UB'
p1251
F900.0
sS'S1NB'
p1252
I25
sS'S2LB'
p1253
F35000.0
sS'S2NB'
p1254
I25
sS'S1LB'
p1255
F350.0
sS'S2UB'
p1256
F250000.0
ssS'nerix_151123_1445.root'
p1257
(dp1258
S'S1UB'
p1259
F900.0
sS'S1NB'
p1260
I10
sS'S2LB'
p1261
F100000.0
sS'S2NB'
p1262
I10
sS'S1LB'
p1263
F400.0
sS'S2UB'
p1264
F300000.0
ssS'nerix_151006_1316.root'
p1265
(dp1266
S'S1UB'
p1267
F450.0
sS'S1NB'
p1268
I25
sS'S2LB'
p1269
F5000.0
sS'S2NB'
p1270
I25
sS'S1LB'
p1271
F100.0
sS'S2UB'
p1272
F60000.0
ssS'nerix_151203_1138.root'
p1273
(dp1274
S'S1UB'
p1275
I3500
sS'S1NB'
p1276
I80
sS'S2LB'
p1277
I0
sS'S2NB'
p1278
I80
sS'S1LB'
p1279
I0
sS'S2UB'
p1280
F1100000.0
ssS'nerix_151002_1044.root'
p1281
(dp1282
S'S1UB'
p1283
F900.0
sS'S1NB'
p1284
I25
sS'S2LB'
p1285
F40000.0
sS'S2NB'
p1286
I25
sS'S1LB'
p1287
F300.0
sS'S2UB'
p1288
F250000.0
ssS'nerix_151208_1400.root'
p1289
(dp1290
S'S1UB'
p1291
F400.0
sS'S1NB'
p1292
I25
sS'S2LB'
p1293
I0
sS'S2NB'
p1294
I25
sS'S1LB'
p1295
F50.0
sS'S2UB'
p1296
F60000.0
ssS'nerix_151005_1605.root'
p1297
(dp1298
S'S1UB'
p1299
F800.0
sS'S1NB'
p1300
I25
sS'S2LB'
p1301
F70000.0
sS'S2NB'
p1302
I25
sS'S1LB'
p1303
F300.0
sS'S2UB'
p1304
F280000.0
ssS'nerix_151222_1200.root'
p1305
(dp1306
S'S1UB'
p1307
I3500
sS'S1NB'
p1308
I80
sS'S2LB'
p1309
I0
sS'S2NB'
p1310
I80
sS'S1LB'
p1311
I0
sS'S2UB'
p1312
F1100000.0
ss.