(dp0
S'nerix_151102_1307.root'
p1
(dp2
S'S1UB'
p3
F1200.0
sS'S1NB'
p4
I25
sS'S2LB'
p5
F100000.0
sS'S2NB'
p6
I25
sS'S1LB'
p7
F400.0
sS'S2UB'
p8
F300000.0
ssS'nerix_150914_1307.root'
p9
(dp10
S'S1UB'
p11
F400.0
sS'S1NB'
p12
I25
sS'S2LB'
p13
F4000.0
sS'S2NB'
p14
I25
sS'S1LB'
p15
F120.0
sS'S2UB'
p16
F28000.0
ssS'nerix_151109_2204.root'
p17
(dp18
S'S1UB'
p19
I1400
sS'S1NB'
p20
I50
sS'S2LB'
p21
I0
sS'S2NB'
p22
I50
sS'S1LB'
p23
I0
sS'S2UB'
p24
F400000.0
ssS'nerix_151019_1546.root'
p25
(dp26
S'S1UB'
p27
F1200.0
sS'S1NB'
p28
I25
sS'S2LB'
p29
F140000.0
sS'S2NB'
p30
I25
sS'S1LB'
p31
F600.0
sS'S2UB'
p32
F300000.0
ssS'nerix_160125_1645.root'
p33
(dp34
S'S1UB'
p35
I3500
sS'S1NB'
p36
I80
sS'S2LB'
p37
I0
sS'S2NB'
p38
I80
sS'S1LB'
p39
I0
sS'S2UB'
p40
F1100000.0
ssS'nerix_151019_1635.root'
p41
(dp42
S'S1UB'
p43
F1100.0
sS'S1NB'
p44
I25
sS'S2LB'
p45
F150000.0
sS'S2NB'
p46
I25
sS'S1LB'
p47
F450.0
sS'S2UB'
p48
F370000.0
ssS'nerix_151201_1249.root'
p49
(dp50
S'S1UB'
p51
I3500
sS'S1NB'
p52
I80
sS'S2LB'
p53
I0
sS'S2NB'
p54
I80
sS'S1LB'
p55
I0
sS'S2UB'
p56
F1100000.0
ssS'nerix_151228_1544.root'
p57
(dp58
S'S1UB'
p59
I3500
sS'S1NB'
p60
I80
sS'S2LB'
p61
I0
sS'S2NB'
p62
I80
sS'S1LB'
p63
I0
sS'S2UB'
p64
F1100000.0
ssS'nerix_151123_1417.root'
p65
(dp66
S'S1UB'
p67
F950.0
sS'S1NB'
p68
I10
sS'S2LB'
p69
F100000.0
sS'S2NB'
p70
I10
sS'S1LB'
p71
F400.0
sS'S2UB'
p72
F250000.0
ssS'nerix_151117_1307.root'
p73
(dp74
S'S1UB'
p75
F350.0
sS'S1NB'
p76
I10
sS'S2LB'
p77
I0
sS'S2NB'
p78
I10
sS'S1LB'
p79
F100.0
sS'S2UB'
p80
F35000.0
ssS'nerix_150914_1618.root'
p81
(dp82
S'S1UB'
p83
F400.0
sS'S1NB'
p84
I20
sS'S2LB'
p85
F12000.0
sS'S2NB'
p86
I20
sS'S1LB'
p87
F120.0
sS'S2UB'
p88
F40000.0
ssS'nerix_151119_1628.root'
p89
(dp90
S'S1UB'
p91
I3500
sS'S1NB'
p92
I80
sS'S2LB'
p93
I0
sS'S2NB'
p94
I80
sS'S1LB'
p95
I0
sS'S2UB'
p96
F1100000.0
ssS'nerix_151223_1157.root'
p97
(dp98
S'S1UB'
p99
I3500
sS'S1NB'
p100
I80
sS'S2LB'
p101
I0
sS'S2NB'
p102
I80
sS'S1LB'
p103
I0
sS'S2UB'
p104
F1100000.0
ssS'nerix_160127_1649.root'
p105
(dp106
S'S1UB'
p107
I3500
sS'S1NB'
p108
I80
sS'S2LB'
p109
I0
sS'S2NB'
p110
I80
sS'S1LB'
p111
I0
sS'S2UB'
p112
F1100000.0
ssS'nerix_160125_1300.root'
p113
(dp114
S'S1UB'
p115
I3500
sS'S1NB'
p116
I80
sS'S2LB'
p117
I0
sS'S2NB'
p118
I80
sS'S1LB'
p119
I0
sS'S2UB'
p120
F1100000.0
ssS'nerix_151109_1727.root'
p121
(dp122
S'S1UB'
p123
I1400
sS'S1NB'
p124
I50
sS'S2LB'
p125
I0
sS'S2NB'
p126
I50
sS'S1LB'
p127
I0
sS'S2UB'
p128
F400000.0
ssS'nerix_160104_1208.root'
p129
(dp130
S'S1UB'
p131
I3500
sS'S1NB'
p132
I80
sS'S2LB'
p133
I0
sS'S2NB'
p134
I80
sS'S1LB'
p135
I0
sS'S2UB'
p136
F1100000.0
ssS'nerix_151102_1126.root'
p137
(dp138
S'S1UB'
p139
I1400
sS'S1NB'
p140
I25
sS'S2LB'
p141
F70000.0
sS'S2NB'
p142
I25
sS'S1LB'
p143
F600.0
sS'S2UB'
p144
F300000.0
ssS'nerix_160125_1423.root'
p145
(dp146
S'S1UB'
p147
I3500
sS'S1NB'
p148
I80
sS'S2LB'
p149
I0
sS'S2NB'
p150
I80
sS'S1LB'
p151
I0
sS'S2UB'
p152
F1100000.0
ssS'nerix_160104_1236.root'
p153
(dp154
S'S1UB'
p155
I3500
sS'S1NB'
p156
I80
sS'S2LB'
p157
I0
sS'S2NB'
p158
I80
sS'S1LB'
p159
I0
sS'S2UB'
p160
F1100000.0
ssS'nerix_160112_1449.root'
p161
(dp162
S'S1UB'
p163
I3500
sS'S1NB'
p164
I80
sS'S2LB'
p165
I0
sS'S2NB'
p166
I80
sS'S1LB'
p167
I0
sS'S2UB'
p168
F1100000.0
ssS'nerix_160104_1113.root'
p169
(dp170
S'S1UB'
p171
I3500
sS'S1NB'
p172
I80
sS'S2LB'
p173
I0
sS'S2NB'
p174
I80
sS'S1LB'
p175
I0
sS'S2UB'
p176
F1100000.0
ssS'nerix_151103_1253.root'
p177
(dp178
S'S1UB'
p179
F1100.0
sS'S1NB'
p180
I25
sS'S2LB'
p181
F140000.0
sS'S2NB'
p182
I25
sS'S1LB'
p183
F500.0
sS'S2UB'
p184
F280000.0
ssS'nerix_160118_1309.root'
p185
(dp186
S'S1UB'
p187
I3500
sS'S1NB'
p188
I80
sS'S2LB'
p189
I0
sS'S2NB'
p190
I80
sS'S1LB'
p191
I0
sS'S2UB'
p192
F1100000.0
ssS'nerix_151026_1215.root'
p193
(dp194
S'S1UB'
p195
F1350.0
sS'S1NB'
p196
I25
sS'S2LB'
p197
F80000.0
sS'S2NB'
p198
I25
sS'S1LB'
p199
F700.0
sS'S2UB'
p200
F250000.0
ssS'nerix_150930_1456.root'
p201
(dp202
S'S1UB'
p203
F850.0
sS'S1NB'
p204
I25
sS'S2LB'
p205
F50000.0
sS'S2NB'
p206
I25
sS'S1LB'
p207
F400.0
sS'S2UB'
p208
F180000.0
ssS'nerix_151124_2014.root'
p209
(dp210
S'S1UB'
p211
I1400
sS'S1NB'
p212
I50
sS'S2LB'
p213
I0
sS'S2NB'
p214
I50
sS'S1LB'
p215
I0
sS'S2UB'
p216
F400000.0
ssS'nerix_150930_1233.root'
p217
(dp218
S'S1UB'
p219
F625.0
sS'S1NB'
p220
I25
sS'S2LB'
p221
F80000.0
sS'S2NB'
p222
I25
sS'S1LB'
p223
F250.0
sS'S2UB'
p224
F230000.0
ssS'nerix_160118_1529.root'
p225
(dp226
S'S1UB'
p227
I3500
sS'S1NB'
p228
I80
sS'S2LB'
p229
I0
sS'S2NB'
p230
I80
sS'S1LB'
p231
I0
sS'S2UB'
p232
F1100000.0
ssS'nerix_160104_1840.root'
p233
(dp234
S'S1UB'
p235
I1400
sS'S1NB'
p236
I50
sS'S2LB'
p237
I0
sS'S2NB'
p238
I50
sS'S1LB'
p239
I0
sS'S2UB'
p240
F400000.0
ssS'nerix_160118_1241.root'
p241
(dp242
S'S1UB'
p243
I3500
sS'S1NB'
p244
I80
sS'S2LB'
p245
I0
sS'S2NB'
p246
I80
sS'S1LB'
p247
I0
sS'S2UB'
p248
F1100000.0
ssS'nerix_160118_2209.root'
p249
(dp250
S'S1UB'
p251
I1400
sS'S1NB'
p252
I50
sS'S2LB'
p253
I0
sS'S2NB'
p254
I50
sS'S1LB'
p255
I0
sS'S2UB'
p256
F400000.0
ssS'nerix_151116_1552.root'
p257
(dp258
S'S1UB'
p259
F300.0
sS'S1NB'
p260
I15
sS'S2LB'
p261
F10000.0
sS'S2NB'
p262
I15
sS'S1LB'
p263
F50.0
sS'S2UB'
p264
F40000.0
ssS'nerix_151102_1154.root'
p265
(dp266
S'S1UB'
p267
F1300.0
sS'S1NB'
p268
I25
sS'S2LB'
p269
F100000.0
sS'S2NB'
p270
I25
sS'S1LB'
p271
F600.0
sS'S2UB'
p272
F300000.0
ssS'nerix_151004_1554.root'
p273
(dp274
S'S1UB'
p275
F400.0
sS'S1NB'
p276
I25
sS'S2LB'
p277
F10000.0
sS'S2NB'
p278
I25
sS'S1LB'
p279
F100.0
sS'S2UB'
p280
F60000.0
ssS'nerix_151207_1427.root'
p281
(dp282
S'S1UB'
p283
I3500
sS'S1NB'
p284
I80
sS'S2LB'
p285
I0
sS'S2NB'
p286
I80
sS'S1LB'
p287
I0
sS'S2UB'
p288
F1100000.0
ssS'nerix_151229_1143.root'
p289
(dp290
S'S1UB'
p291
I3500
sS'S1NB'
p292
I80
sS'S2LB'
p293
I0
sS'S2NB'
p294
I80
sS'S1LB'
p295
I0
sS'S2UB'
p296
F1100000.0
ssS'nerix_150902_1512.root'
p297
(dp298
S'S1UB'
p299
F200.0
sS'S1NB'
p300
I25
sS'S2LB'
p301
F5000.0
sS'S2NB'
p302
I25
sS'S1LB'
p303
F50.0
sS'S2UB'
p304
F20000.0
ssS'nerix_150914_1346.root'
p305
(dp306
S'S1UB'
p307
F400.0
sS'S1NB'
p308
I15
sS'S2LB'
p309
F8000.0
sS'S2NB'
p310
I15
sS'S1LB'
p311
F120.0
sS'S2UB'
p312
F30000.0
ssS'nerix_160113_0628.root'
p313
(dp314
S'S1UB'
p315
I1400
sS'S1NB'
p316
I50
sS'S2LB'
p317
I0
sS'S2NB'
p318
I50
sS'S1LB'
p319
I0
sS'S2UB'
p320
F400000.0
ssS'nerix_151216_1532.root'
p321
(dp322
S'S1UB'
p323
I1400
sS'S1NB'
p324
I50
sS'S2LB'
p325
I0
sS'S2NB'
p326
I50
sS'S1LB'
p327
I0
sS'S2UB'
p328
F400000.0
ssS'nerix_150917_1202.root'
p329
(dp330
S'S1UB'
p331
F350.0
sS'S1NB'
p332
I25
sS'S2LB'
p333
F22000.0
sS'S2NB'
p334
I25
sS'S1LB'
p335
F100.0
sS'S2UB'
p336
F55000.0
ssS'nerix_151201_1232.root'
p337
(dp338
S'S1UB'
p339
I3500
sS'S1NB'
p340
I80
sS'S2LB'
p341
I0
sS'S2NB'
p342
I80
sS'S1LB'
p343
I0
sS'S2UB'
p344
F1100000.0
ssS'nerix_150915_1435.root'
p345
(dp346
S'S1UB'
p347
F400.0
sS'S1NB'
p348
I25
sS'S2LB'
p349
F18000.0
sS'S2NB'
p350
I25
sS'S1LB'
p351
F100.0
sS'S2UB'
p352
F45000.0
ssS'nerix_151109_1952.root'
p353
(dp354
S'S1UB'
p355
I1400
sS'S1NB'
p356
I50
sS'S2LB'
p357
I0
sS'S2NB'
p358
I50
sS'S1LB'
p359
I0
sS'S2UB'
p360
F400000.0
ssS'nerix_151211_0926.root'
p361
(dp362
S'S1UB'
p363
F1150.0
sS'S1NB'
p364
I25
sS'S2LB'
p365
F150000.0
sS'S2NB'
p366
I25
sS'S1LB'
p367
F600.0
sS'S2UB'
p368
F250000.0
ssS'nerix_151006_1522.root'
p369
(dp370
S'S1UB'
p371
F450.0
sS'S1NB'
p372
I25
sS'S2LB'
p373
I0
sS'S2NB'
p374
I25
sS'S1LB'
p375
I0
sS'S2UB'
p376
F50000.0
ssS'nerix_151004_1358.root'
p377
(dp378
S'S1UB'
p379
F400.0
sS'S1NB'
p380
I25
sS'S2LB'
p381
F20000.0
sS'S2NB'
p382
I25
sS'S1LB'
p383
F100.0
sS'S2UB'
p384
F70000.0
ssS'nerix_160118_1120.root'
p385
(dp386
S'S1UB'
p387
I3500
sS'S1NB'
p388
I80
sS'S2LB'
p389
I0
sS'S2NB'
p390
I80
sS'S1LB'
p391
I0
sS'S2UB'
p392
F1100000.0
ssS'nerix_160118_1409.root'
p393
(dp394
S'S1UB'
p395
I3500
sS'S1NB'
p396
I80
sS'S2LB'
p397
I0
sS'S2NB'
p398
I80
sS'S1LB'
p399
I0
sS'S2UB'
p400
F1100000.0
ssS'nerix_151119_1447.root'
p401
(dp402
S'S1UB'
p403
I3500
sS'S1NB'
p404
I50
sS'S2LB'
p405
I0
sS'S2NB'
p406
I50
sS'S1LB'
p407
I0
sS'S2UB'
p408
F1100000.0
ssS'nerix_151228_1607.root'
p409
(dp410
S'S1UB'
p411
I3500
sS'S1NB'
p412
I80
sS'S2LB'
p413
I0
sS'S2NB'
p414
I80
sS'S1LB'
p415
I0
sS'S2UB'
p416
F1100000.0
ssS'nerix_151005_1505.root'
p417
(dp418
S'S1UB'
p419
F900.0
sS'S1NB'
p420
I25
sS'S2LB'
p421
F50000.0
sS'S2NB'
p422
I25
sS'S1LB'
p423
F350.0
sS'S2UB'
p424
F250000.0
ssS'nerix_160112_1250.root'
p425
(dp426
S'S1UB'
p427
I3500
sS'S1NB'
p428
I80
sS'S2LB'
p429
I0
sS'S2NB'
p430
I80
sS'S1LB'
p431
I0
sS'S2UB'
p432
F1100000.0
ssS'nerix_160118_1853.root'
p433
(dp434
S'S1UB'
p435
I1400
sS'S1NB'
p436
I50
sS'S2LB'
p437
I0
sS'S2NB'
p438
I50
sS'S1LB'
p439
I0
sS'S2UB'
p440
F400000.0
ssS'nerix_160127_1530.root'
p441
(dp442
S'S1UB'
p443
I3500
sS'S1NB'
p444
I80
sS'S2LB'
p445
I0
sS'S2NB'
p446
I80
sS'S1LB'
p447
I0
sS'S2UB'
p448
F1100000.0
ssS'nerix_151125_0625.root'
p449
(dp450
S'S1UB'
p451
I1400
sS'S1NB'
p452
I50
sS'S2LB'
p453
I0
sS'S2NB'
p454
I50
sS'S1LB'
p455
I0
sS'S2UB'
p456
F400000.0
ssS'nerix_151203_1549.root'
p457
(dp458
S'S1UB'
p459
I3500
sS'S1NB'
p460
I80
sS'S2LB'
p461
I0
sS'S2NB'
p462
I80
sS'S1LB'
p463
I0
sS'S2UB'
p464
F1100000.0
ssS'nerix_151123_1309.root'
p465
(dp466
S'S1UB'
p467
F450.0
sS'S1NB'
p468
I15
sS'S2LB'
p469
I0
sS'S2NB'
p470
I15
sS'S1LB'
p471
I0
sS'S2UB'
p472
F40000.0
ssS'nerix_160118_2007.root'
p473
(dp474
S'S1UB'
p475
I1400
sS'S1NB'
p476
I50
sS'S2LB'
p477
I0
sS'S2NB'
p478
I50
sS'S1LB'
p479
I0
sS'S2UB'
p480
F400000.0
ssS'nerix_150902_1537.root'
p481
(dp482
S'S1UB'
p483
F320.0
sS'S1NB'
p484
I25
sS'S2LB'
p485
F14000.0
sS'S2NB'
p486
I25
sS'S1LB'
p487
F120.0
sS'S2UB'
p488
F32000.0
ssS'nerix_151223_1343.root'
p489
(dp490
S'S1UB'
p491
I3500
sS'S1NB'
p492
I80
sS'S2LB'
p493
I0
sS'S2NB'
p494
I80
sS'S1LB'
p495
I0
sS'S2UB'
p496
F1100000.0
ssS'nerix_151229_1054.root'
p497
(dp498
S'S1UB'
p499
I3500
sS'S1NB'
p500
I80
sS'S2LB'
p501
I0
sS'S2NB'
p502
I80
sS'S1LB'
p503
I0
sS'S2UB'
p504
F1100000.0
ssS'nerix_151002_1517.root'
p505
(dp506
S'S1UB'
p507
F1000.0
sS'S1NB'
p508
I25
sS'S2LB'
p509
F20000.0
sS'S2NB'
p510
I25
sS'S1LB'
p511
F250.0
sS'S2UB'
p512
F200000.0
ssS'nerix_160127_1623.root'
p513
(dp514
S'S1UB'
p515
I3500
sS'S1NB'
p516
I80
sS'S2LB'
p517
I0
sS'S2NB'
p518
I80
sS'S1LB'
p519
I0
sS'S2UB'
p520
F1100000.0
ssS'nerix_151006_1235.root'
p521
(dp522
S'S1UB'
p523
F450.0
sS'S1NB'
p524
I25
sS'S2LB'
p525
I0
sS'S2NB'
p526
I25
sS'S1LB'
p527
F100.0
sS'S2UB'
p528
F60000.0
ssS'nerix_160105_0713.root'
p529
(dp530
S'S1UB'
p531
I1400
sS'S1NB'
p532
I50
sS'S2LB'
p533
I0
sS'S2NB'
p534
I50
sS'S1LB'
p535
I0
sS'S2UB'
p536
F400000.0
ssS'nerix_150914_1416.root'
p537
(dp538
S'S1UB'
p539
F400.0
sS'S1NB'
p540
I25
sS'S2LB'
p541
F10000.0
sS'S2NB'
p542
I25
sS'S1LB'
p543
F120.0
sS'S2UB'
p544
F36000.0
ssS'nerix_160118_1341.root'
p545
(dp546
S'S1UB'
p547
I3500
sS'S1NB'
p548
I80
sS'S2LB'
p549
I0
sS'S2NB'
p550
I80
sS'S1LB'
p551
I0
sS'S2UB'
p552
F1100000.0
ssS'nerix_151210_1341.root'
p553
(dp554
S'S1UB'
p555
F4000.0
sS'S1NB'
p556
I25
sS'S2LB'
p557
F600000.0
sS'S2NB'
p558
I25
sS'S1LB'
p559
F2200.0
sS'S2UB'
p560
F1050000.0
ssS'nerix_160126_1201.root'
p561
(dp562
S'S1UB'
p563
I1400
sS'S1NB'
p564
I50
sS'S2LB'
p565
I0
sS'S2NB'
p566
I50
sS'S1LB'
p567
I0
sS'S2UB'
p568
F400000.0
ssS'nerix_151214_1344.root'
p569
(dp570
S'S1UB'
p571
I3500
sS'S1NB'
p572
I80
sS'S2LB'
p573
I0
sS'S2NB'
p574
I80
sS'S1LB'
p575
I0
sS'S2UB'
p576
F1100000.0
ssS'nerix_160112_1357.root'
p577
(dp578
S'S1UB'
p579
I3500
sS'S1NB'
p580
I80
sS'S2LB'
p581
I0
sS'S2NB'
p582
I80
sS'S1LB'
p583
I0
sS'S2UB'
p584
F1100000.0
ssS'nerix_151029_0923.root'
p585
(dp586
S'S1UB'
p587
F370.0
sS'S1NB'
p588
I15
sS'S2LB'
p589
F15000.0
sS'S2NB'
p590
I15
sS'S1LB'
p591
F150.0
sS'S2UB'
p592
F45000.0
ssS'nerix_160125_1232.root'
p593
(dp594
S'S1UB'
p595
I3500
sS'S1NB'
p596
I80
sS'S2LB'
p597
I0
sS'S2NB'
p598
I80
sS'S1LB'
p599
I0
sS'S2UB'
p600
F1100000.0
ssS'nerix_150930_1708.root'
p601
(dp602
S'S1UB'
p603
F800.0
sS'S1NB'
p604
I25
sS'S2LB'
p605
F50000.0
sS'S2NB'
p606
I25
sS'S1LB'
p607
F350.0
sS'S2UB'
p608
F200000.0
ssS'nerix_160126_1055.root'
p609
(dp610
S'S1UB'
p611
I1400
sS'S1NB'
p612
I50
sS'S2LB'
p613
I0
sS'S2NB'
p614
I50
sS'S1LB'
p615
I0
sS'S2UB'
p616
F400000.0
ssS'nerix_151201_1344.root'
p617
(dp618
S'S1UB'
p619
I3500
sS'S1NB'
p620
I80
sS'S2LB'
p621
I0
sS'S2NB'
p622
I80
sS'S1LB'
p623
I0
sS'S2UB'
p624
F1100000.0
ssS'nerix_151222_1227.root'
p625
(dp626
S'S1UB'
p627
I3500
sS'S1NB'
p628
I80
sS'S2LB'
p629
I0
sS'S2NB'
p630
I80
sS'S1LB'
p631
I0
sS'S2UB'
p632
F1100000.0
ssS'nerix_160127_1556.root'
p633
(dp634
S'S1UB'
p635
I3500
sS'S1NB'
p636
I80
sS'S2LB'
p637
I0
sS'S2NB'
p638
I80
sS'S1LB'
p639
I0
sS'S2UB'
p640
F1100000.0
ssS'nerix_150915_1502.root'
p641
(dp642
S'S1UB'
p643
F400.0
sS'S1NB'
p644
I20
sS'S2LB'
p645
F20000.0
sS'S2NB'
p646
I20
sS'S1LB'
p647
F100.0
sS'S2UB'
p648
F40000.0
ssS'nerix_160125_1550.root'
p649
(dp650
S'S1UB'
p651
I3500
sS'S1NB'
p652
I80
sS'S2LB'
p653
I0
sS'S2NB'
p654
I80
sS'S1LB'
p655
I0
sS'S2UB'
p656
F1100000.0
ssS'nerix_160104_1708.root'
p657
(dp658
S'S1UB'
p659
I1400
sS'S1NB'
p660
I50
sS'S2LB'
p661
I0
sS'S2NB'
p662
I50
sS'S1LB'
p663
I0
sS'S2UB'
p664
F400000.0
ssS'nerix_150916_1559.root'
p665
(dp666
S'S1UB'
p667
F420.0
sS'S1NB'
p668
I25
sS'S2LB'
p669
F14000.0
sS'S2NB'
p670
I25
sS'S1LB'
p671
F160.0
sS'S2UB'
p672
F40000.0
ssS'nerix_151028_1205.root'
p673
(dp674
S'S1UB'
p675
F1300.0
sS'S1NB'
p676
I25
sS'S2LB'
p677
F20000.0
sS'S2NB'
p678
I25
sS'S1LB'
p679
F500.0
sS'S2UB'
p680
F90000.0
ssS'nerix_151229_1029.root'
p681
(dp682
S'S1UB'
p683
I3500
sS'S1NB'
p684
I80
sS'S2LB'
p685
I0
sS'S2NB'
p686
I80
sS'S1LB'
p687
I0
sS'S2UB'
p688
F1100000.0
ssS'nerix_151216_1419.root'
p689
(dp690
S'S1UB'
p691
I1400
sS'S1NB'
p692
I50
sS'S2LB'
p693
I0
sS'S2NB'
p694
I50
sS'S1LB'
p695
I0
sS'S2UB'
p696
F400000.0
ssS'nerix_151228_1409.root'
p697
(dp698
S'S1UB'
p699
I3500
sS'S1NB'
p700
I80
sS'S2LB'
p701
I0
sS'S2NB'
p702
I80
sS'S1LB'
p703
I0
sS'S2UB'
p704
F1100000.0
ssS'nerix_160112_1919.root'
p705
(dp706
S'S1UB'
p707
I1400
sS'S1NB'
p708
I50
sS'S2LB'
p709
I0
sS'S2NB'
p710
I50
sS'S1LB'
p711
I0
sS'S2UB'
p712
F400000.0
ssS'nerix_151026_1421.root'
p713
(dp714
S'S1UB'
p715
F1200.0
sS'S1NB'
p716
I25
sS'S2LB'
p717
F140000.0
sS'S2NB'
p718
I25
sS'S1LB'
p719
F450.0
sS'S2UB'
p720
F350000.0
ssS'nerix_160111_1324.root'
p721
(dp722
S'S1UB'
p723
I3500
sS'S1NB'
p724
I80
sS'S2LB'
p725
I0
sS'S2NB'
p726
I80
sS'S1LB'
p727
I0
sS'S2UB'
p728
F1100000.0
ssS'nerix_151019_1502.root'
p729
(dp730
S'S1UB'
p731
F1300.0
sS'S1NB'
p732
I25
sS'S2LB'
p733
F130000.0
sS'S2NB'
p734
I25
sS'S1LB'
p735
F650.0
sS'S2UB'
p736
F280000.0
ssS'nerix_151201_1519.root'
p737
(dp738
S'S1UB'
p739
F300.0
sS'S1NB'
p740
I25
sS'S2LB'
p741
F5000.0
sS'S2NB'
p742
I25
sS'S1LB'
p743
F100.0
sS'S2UB'
p744
F30000.0
ssS'nerix_151216_1251.root'
p745
(dp746
S'S1UB'
p747
I1400
sS'S1NB'
p748
I50
sS'S2LB'
p749
I0
sS'S2NB'
p750
I50
sS'S1LB'
p751
I0
sS'S2UB'
p752
F400000.0
ssS'nerix_151006_1454.root'
p753
(dp754
S'S1UB'
p755
F450.0
sS'S1NB'
p756
I25
sS'S2LB'
p757
I0
sS'S2NB'
p758
I25
sS'S1LB'
p759
I0
sS'S2UB'
p760
F50000.0
ssS'nerix_160104_1410.root'
p761
(dp762
S'S1UB'
p763
I3500
sS'S1NB'
p764
I80
sS'S2LB'
p765
I0
sS'S2NB'
p766
I80
sS'S1LB'
p767
I0
sS'S2UB'
p768
F1100000.0
ssS'nerix_151211_1037.root'
p769
(dp770
S'S1UB'
p771
F900.0
sS'S1NB'
p772
I25
sS'S2LB'
p773
F100000.0
sS'S2NB'
p774
I25
sS'S1LB'
p775
F400.0
sS'S2UB'
p776
F170000.0
ssS'nerix_151203_1345.root'
p777
(dp778
S'S1UB'
p779
I3500
sS'S1NB'
p780
I80
sS'S2LB'
p781
I0
sS'S2NB'
p782
I80
sS'S1LB'
p783
I0
sS'S2UB'
p784
F1100000.0
ssS'nerix_150915_1332.root'
p785
(dp786
S'S1UB'
p787
F400.0
sS'S1NB'
p788
I20
sS'S2LB'
p789
F18000.0
sS'S2NB'
p790
I20
sS'S1LB'
p791
F100.0
sS'S2UB'
p792
F40000.0
ssS'nerix_151207_1557.root'
p793
(dp794
S'S1UB'
p795
I3500
sS'S1NB'
p796
I80
sS'S2LB'
p797
I0
sS'S2NB'
p798
I80
sS'S1LB'
p799
I0
sS'S2UB'
p800
F1100000.0
ssS'nerix_151006_0949.root'
p801
(dp802
S'S1UB'
p803
F1000.0
sS'S1NB'
p804
I25
sS'S2LB'
p805
F220000.0
sS'S2NB'
p806
I25
sS'S1LB'
p807
F400.0
sS'S2UB'
p808
F360000.0
ssS'nerix_151210_1531.root'
p809
(dp810
S'S1UB'
p811
F7500.0
sS'S1NB'
p812
I25
sS'S2LB'
p813
F1200000.0
sS'S2NB'
p814
I25
sS'S1LB'
p815
F4000.0
sS'S2UB'
p816
F1900000.0
ssS'nerix_150902_1643.root'
p817
(dp818
S'S1UB'
p819
F500.0
sS'S1NB'
p820
I25
sS'S2LB'
p821
F26000.0
sS'S2NB'
p822
I25
sS'S1LB'
p823
F250.0
sS'S2UB'
p824
F55000.0
ssS'nerix_151203_1119.root'
p825
(dp826
S'S1UB'
p827
I3500
sS'S1NB'
p828
I80
sS'S2LB'
p829
I0
sS'S2NB'
p830
I80
sS'S1LB'
p831
I0
sS'S2UB'
p832
F1100000.0
ssS'nerix_151117_1403.root'
p833
(dp834
S'S1UB'
p835
F400.0
sS'S1NB'
p836
I10
sS'S2LB'
p837
I0
sS'S2NB'
p838
I10
sS'S1LB'
p839
F50.0
sS'S2UB'
p840
F50000.0
ssS'nerix_151228_1454.root'
p841
(dp842
S'S1UB'
p843
I3500
sS'S1NB'
p844
I80
sS'S2LB'
p845
I0
sS'S2NB'
p846
I80
sS'S1LB'
p847
I0
sS'S2UB'
p848
F1100000.0
ssS'nerix_151117_1445.root'
p849
(dp850
S'S1UB'
p851
F350.0
sS'S1NB'
p852
I25
sS'S2LB'
p853
I0
sS'S2NB'
p854
I25
sS'S1LB'
p855
F100.0
sS'S2UB'
p856
F60000.0
ssS'nerix_160111_1306.root'
p857
(dp858
S'S1UB'
p859
I3500
sS'S1NB'
p860
I80
sS'S2LB'
p861
I0
sS'S2NB'
p862
I80
sS'S1LB'
p863
I0
sS'S2UB'
p864
F1100000.0
ssS'nerix_150917_0941.root'
p865
(dp866
S'S1UB'
p867
F400.0
sS'S1NB'
p868
I25
sS'S2LB'
p869
F18000.0
sS'S2NB'
p870
I25
sS'S1LB'
p871
F140.0
sS'S2UB'
p872
F42000.0
ssS'nerix_151214_1126.root'
p873
(dp874
S'S1UB'
p875
I3500
sS'S1NB'
p876
I80
sS'S2LB'
p877
I0
sS'S2NB'
p878
I80
sS'S1LB'
p879
I0
sS'S2UB'
p880
F1100000.0
ssS'nerix_150914_1519.root'
p881
(dp882
S'S1UB'
p883
F400.0
sS'S1NB'
p884
I15
sS'S2LB'
p885
F15000.0
sS'S2NB'
p886
I15
sS'S1LB'
p887
F150.0
sS'S2UB'
p888
F38000.0
ssS'nerix_160118_1737.root'
p889
(dp890
S'S1UB'
p891
I1400
sS'S1NB'
p892
I50
sS'S2LB'
p893
I0
sS'S2NB'
p894
I50
sS'S1LB'
p895
I0
sS'S2UB'
p896
F400000.0
ssS'nerix_151209_1353.root'
p897
(dp898
S'S1UB'
p899
F1000.0
sS'S1NB'
p900
I25
sS'S2LB'
p901
F50000.0
sS'S2NB'
p902
I25
sS'S1LB'
p903
F400.0
sS'S2UB'
p904
F350000.0
ssS'nerix_151005_1536.root'
p905
(dp906
S'S1UB'
p907
F900.0
sS'S1NB'
p908
I25
sS'S2LB'
p909
F50000.0
sS'S2NB'
p910
I25
sS'S1LB'
p911
F300.0
sS'S2UB'
p912
F250000.0
ssS'nerix_160104_2200.root'
p913
(dp914
S'S1UB'
p915
I1400
sS'S1NB'
p916
I50
sS'S2LB'
p917
I0
sS'S2NB'
p918
I50
sS'S1LB'
p919
I0
sS'S2UB'
p920
F400000.0
ssS'nerix_151222_1320.root'
p921
(dp922
S'S1UB'
p923
I3500
sS'S1NB'
p924
I80
sS'S2LB'
p925
I0
sS'S2NB'
p926
I80
sS'S1LB'
p927
I0
sS'S2UB'
p928
F1100000.0
ssS'nerix_150917_1039.root'
p929
(dp930
S'S1UB'
p931
F400.0
sS'S1NB'
p932
I25
sS'S2LB'
p933
F20000.0
sS'S2NB'
p934
I25
sS'S1LB'
p935
F120.0
sS'S2UB'
p936
F46000.0
ssS'nerix_160104_2013.root'
p937
(dp938
S'S1UB'
p939
I1400
sS'S1NB'
p940
I50
sS'S2LB'
p941
I0
sS'S2NB'
p942
I50
sS'S1LB'
p943
I0
sS'S2UB'
p944
F400000.0
ssS'nerix_151028_1231.root'
p945
(dp946
S'S1UB'
p947
F1200.0
sS'S1NB'
p948
I25
sS'S2LB'
p949
F20000.0
sS'S2NB'
p950
I25
sS'S1LB'
p951
F400.0
sS'S2UB'
p952
F100000.0
ssS'nerix_151006_1612.root'
p953
(dp954
S'S1UB'
p955
F400.0
sS'S1NB'
p956
I25
sS'S2LB'
p957
I0
sS'S2NB'
p958
I25
sS'S1LB'
p959
F150.0
sS'S2UB'
p960
F60000.0
ssS'nerix_150914_1450.root'
p961
(dp962
S'S1UB'
p963
F400.0
sS'S1NB'
p964
I25
sS'S2LB'
p965
F12000.0
sS'S2NB'
p966
I25
sS'S1LB'
p967
F120.0
sS'S2UB'
p968
F35000.0
ssS'nerix_160125_1452.root'
p969
(dp970
S'S1UB'
p971
I3500
sS'S1NB'
p972
I80
sS'S2LB'
p973
I0
sS'S2NB'
p974
I80
sS'S1LB'
p975
I0
sS'S2UB'
p976
F1100000.0
ssS'nerix_160118_1147.root'
p977
(dp978
S'S1UB'
p979
I3500
sS'S1NB'
p980
I80
sS'S2LB'
p981
I0
sS'S2NB'
p982
I80
sS'S1LB'
p983
I0
sS'S2UB'
p984
F1100000.0
ssS'nerix_151207_1619.root'
p985
(dp986
S'S1UB'
p987
I3500
sS'S1NB'
p988
I80
sS'S2LB'
p989
I0
sS'S2NB'
p990
I80
sS'S1LB'
p991
I0
sS'S2UB'
p992
F1100000.0
ssS'nerix_150928_1338.root'
p993
(dp994
S'S1UB'
p995
F340.0
sS'S1NB'
p996
I25
sS'S2LB'
p997
F20000.0
sS'S2NB'
p998
I25
sS'S1LB'
p999
F100.0
sS'S2UB'
p1000
F85000.0
ssS'nerix_151102_1232.root'
p1001
(dp1002
S'S1UB'
p1003
F1200.0
sS'S1NB'
p1004
I15
sS'S2LB'
p1005
F100000.0
sS'S2NB'
p1006
I15
sS'S1LB'
p1007
F550.0
sS'S2UB'
p1008
F280000.0
ssS'nerix_160104_1436.root'
p1009
(dp1010
S'S1UB'
p1011
I3500
sS'S1NB'
p1012
I80
sS'S2LB'
p1013
I0
sS'S2NB'
p1014
I80
sS'S1LB'
p1015
I0
sS'S2UB'
p1016
F1100000.0
ssS'nerix_151209_1240.root'
p1017
(dp1018
S'S1UB'
p1019
F1100.0
sS'S1NB'
p1020
I25
sS'S2LB'
p1021
F50000.0
sS'S2NB'
p1022
I25
sS'S1LB'
p1023
F400.0
sS'S2UB'
p1024
F300000.0
ssS'nerix_160112_1518.root'
p1025
(dp1026
S'S1UB'
p1027
I3500
sS'S1NB'
p1028
I80
sS'S2LB'
p1029
I0
sS'S2NB'
p1030
I80
sS'S1LB'
p1031
I0
sS'S2UB'
p1032
F1100000.0
ssS'nerix_151124_1719.root'
p1033
(dp1034
S'S1UB'
p1035
I1400
sS'S1NB'
p1036
I50
sS'S2LB'
p1037
I0
sS'S2NB'
p1038
I50
sS'S1LB'
p1039
I0
sS'S2UB'
p1040
F400000.0
ssS'nerix_160111_1213.root'
p1041
(dp1042
S'S1UB'
p1043
I3500
sS'S1NB'
p1044
I80
sS'S2LB'
p1045
I0
sS'S2NB'
p1046
I80
sS'S1LB'
p1047
I0
sS'S2UB'
p1048
F1100000.0
ssS'nerix_160126_1418.root'
p1049
(dp1050
S'S1UB'
p1051
I1400
sS'S1NB'
p1052
I50
sS'S2LB'
p1053
I0
sS'S2NB'
p1054
I50
sS'S1LB'
p1055
I0
sS'S2UB'
p1056
F400000.0
ssS'nerix_160126_1309.root'
p1057
(dp1058
S'S1UB'
p1059
I1400
sS'S1NB'
p1060
I50
sS'S2LB'
p1061
I0
sS'S2NB'
p1062
I50
sS'S1LB'
p1063
I0
sS'S2UB'
p1064
F400000.0
ssS'nerix_160125_1618.root'
p1065
(dp1066
S'S1UB'
p1067
I3500
sS'S1NB'
p1068
I80
sS'S2LB'
p1069
I0
sS'S2NB'
p1070
I80
sS'S1LB'
p1071
I0
sS'S2UB'
p1072
F1100000.0
ssS'nerix_151210_1437.root'
p1073
(dp1074
S'S1UB'
p1075
F5600.0
sS'S1NB'
p1076
I25
sS'S2LB'
p1077
F900000.0
sS'S2NB'
p1078
I25
sS'S1LB'
p1079
F3000.0
sS'S2UB'
p1080
F1400000.0
ssS'nerix_151210_1646.root'
p1081
(dp1082
S'S1UB'
p1083
F10000.0
sS'S1NB'
p1084
I25
sS'S2LB'
p1085
F1700000.0
sS'S2NB'
p1086
I25
sS'S1LB'
p1087
F5500.0
sS'S2UB'
p1088
F2500000.0
ssS'nerix_151223_1222.root'
p1089
(dp1090
S'S1UB'
p1091
I3500
sS'S1NB'
p1092
I80
sS'S2LB'
p1093
I0
sS'S2NB'
p1094
I80
sS'S1LB'
p1095
I0
sS'S2UB'
p1096
F1100000.0
ssS'nerix_160104_1140.root'
p1097
(dp1098
S'S1UB'
p1099
I3500
sS'S1NB'
p1100
I80
sS'S2LB'
p1101
I0
sS'S2NB'
p1102
I80
sS'S1LB'
p1103
I0
sS'S2UB'
p1104
F1100000.0
ssS'nerix_160111_1145.root'
p1105
(dp1106
S'S1UB'
p1107
I3500
sS'S1NB'
p1108
I80
sS'S2LB'
p1109
I0
sS'S2NB'
p1110
I80
sS'S1LB'
p1111
I0
sS'S2UB'
p1112
F1100000.0
ssS'nerix_151005_1436.root'
p1113
(dp1114
S'S1UB'
p1115
F1000.0
sS'S1NB'
p1116
I25
sS'S2LB'
p1117
F45000.0
sS'S2NB'
p1118
I25
sS'S1LB'
p1119
F400.0
sS'S2UB'
p1120
F220000.0
ssS'nerix_150914_1236.root'
p1121
(dp1122
S'S1UB'
p1123
F400.0
sS'S1NB'
p1124
I25
sS'S2LB'
p1125
F20000.0
sS'S2NB'
p1126
I25
sS'S1LB'
p1127
F100.0
sS'S2UB'
p1128
F44000.0
ssS'nerix_151005_1408.root'
p1129
(dp1130
S'S1UB'
p1131
F1100.0
sS'S1NB'
p1132
I25
sS'S2LB'
p1133
F30000.0
sS'S2NB'
p1134
I25
sS'S1LB'
p1135
F400.0
sS'S2UB'
p1136
F200000.0
ssS'nerix_151216_1139.root'
p1137
(dp1138
S'S1UB'
p1139
I1400
sS'S1NB'
p1140
I50
sS'S2LB'
p1141
I0
sS'S2NB'
p1142
I50
sS'S1LB'
p1143
I0
sS'S2UB'
p1144
F400000.0
ssS'nerix_151006_1150.root'
p1145
(dp1146
S'S1UB'
p1147
F450.0
sS'S1NB'
p1148
I25
sS'S2LB'
p1149
F5000.0
sS'S2NB'
p1150
I25
sS'S1LB'
p1151
F100.0
sS'S2UB'
p1152
F60000.0
ssS'nerix_151210_1237.root'
p1153
(dp1154
S'S1UB'
p1155
F1600.0
sS'S1NB'
p1156
I25
sS'S2LB'
p1157
F230000.0
sS'S2NB'
p1158
I25
sS'S1LB'
p1159
F900.0
sS'S2UB'
p1160
F400000.0
ssS'nerix_151119_1506.root'
p1161
(dp1162
S'S1UB'
p1163
I3500
sS'S1NB'
p1164
I50
sS'S2LB'
p1165
I0
sS'S2NB'
p1166
I50
sS'S1LB'
p1167
I0
sS'S2UB'
p1168
F1100000.0
ssS'nerix_151123_1347.root'
p1169
(dp1170
S'S1UB'
p1171
F400.0
sS'S1NB'
p1172
I15
sS'S2LB'
p1173
I0
sS'S2NB'
p1174
I15
sS'S1LB'
p1175
I0
sS'S2UB'
p1176
F50000.0
ssS'nerix_150928_1424.root'
p1177
(dp1178
S'S1UB'
p1179
F300.0
sS'S1NB'
p1180
I25
sS'S2LB'
p1181
F20000.0
sS'S2NB'
p1182
I25
sS'S1LB'
p1183
F100.0
sS'S2UB'
p1184
F90000.0
ssS'nerix_150915_1405.root'
p1185
(dp1186
S'S1UB'
p1187
F400.0
sS'S1NB'
p1188
I20
sS'S2LB'
p1189
F20000.0
sS'S2NB'
p1190
I20
sS'S1LB'
p1191
F100.0
sS'S2UB'
p1192
F40000.0
ssS'nerix_151222_1349.root'
p1193
(dp1194
S'S1UB'
p1195
I3500
sS'S1NB'
p1196
I80
sS'S2LB'
p1197
I0
sS'S2NB'
p1198
I80
sS'S1LB'
p1199
I0
sS'S2UB'
p1200
F1100000.0
ssS'nerix_150928_1150.root'
p1201
(dp1202
S'S1UB'
p1203
F430.0
sS'S1NB'
p1204
I25
sS'S2LB'
p1205
F10000.0
sS'S2NB'
p1206
I25
sS'S1LB'
p1207
F180.0
sS'S2UB'
p1208
F60000.0
ssS'nerix_151203_1317.root'
p1209
(dp1210
S'S1UB'
p1211
I3500
sS'S1NB'
p1212
I80
sS'S2LB'
p1213
I0
sS'S2NB'
p1214
I80
sS'S1LB'
p1215
I0
sS'S2UB'
p1216
F1100000.0
ssS'nerix_151117_1336.root'
p1217
(dp1218
S'S1UB'
p1219
F400.0
sS'S1NB'
p1220
I15
sS'S2LB'
p1221
I0
sS'S2NB'
p1222
I15
sS'S1LB'
p1223
F100.0
sS'S2UB'
p1224
F40000.0
ssS'nerix_151228_1433.root'
p1225
(dp1226
S'S1UB'
p1227
I3500
sS'S1NB'
p1228
I80
sS'S2LB'
p1229
I0
sS'S2NB'
p1230
I80
sS'S1LB'
p1231
I0
sS'S2UB'
p1232
F1100000.0
ssS'nerix_151207_1536.root'
p1233
(dp1234
S'S1UB'
p1235
I3500
sS'S1NB'
p1236
I80
sS'S2LB'
p1237
I0
sS'S2NB'
p1238
I80
sS'S1LB'
p1239
I0
sS'S2UB'
p1240
F1100000.0
ssS'nerix_150902_1446.root'
p1241
(dp1242
S'S1UB'
p1243
F400.0
sS'S1NB'
p1244
I25
sS'S2LB'
p1245
F20000.0
sS'S2NB'
p1246
I25
sS'S1LB'
p1247
F180.0
sS'S2UB'
p1248
F45000.0
ssS'nerix_160125_1521.root'
p1249
(dp1250
S'S1UB'
p1251
I3500
sS'S1NB'
p1252
I80
sS'S2LB'
p1253
I0
sS'S2NB'
p1254
I80
sS'S1LB'
p1255
I0
sS'S2UB'
p1256
F1100000.0
ssS'nerix_151203_1239.root'
p1257
(dp1258
S'S1UB'
p1259
I3500
sS'S1NB'
p1260
I80
sS'S2LB'
p1261
I0
sS'S2NB'
p1262
I80
sS'S1LB'
p1263
I0
sS'S2UB'
p1264
F1100000.0
ssS'nerix_151006_1100.root'
p1265
(dp1266
S'S1UB'
p1267
F500.0
sS'S1NB'
p1268
I25
sS'S2LB'
p1269
F10000.0
sS'S2NB'
p1270
I25
sS'S1LB'
p1271
F100.0
sS'S2UB'
p1272
F60000.0
ssS'nerix_151119_1527.root'
p1273
(dp1274
S'S1UB'
p1275
I3500
sS'S1NB'
p1276
I80
sS'S2LB'
p1277
I0
sS'S2NB'
p1278
I80
sS'S1LB'
p1279
I0
sS'S2UB'
p1280
F1100000.0
ssS'nerix_151006_1547.root'
p1281
(dp1282
S'S1UB'
p1283
F500.0
sS'S1NB'
p1284
I25
sS'S2LB'
p1285
I0
sS'S2NB'
p1286
I25
sS'S1LB'
p1287
F100.0
sS'S2UB'
p1288
F55000.0
ssS'nerix_150904_1151.root'
p1289
(dp1290
S'S1UB'
p1291
F670.0
sS'S1NB'
p1292
I25
sS'S2LB'
p1293
F36000.0
sS'S2NB'
p1294
I25
sS'S1LB'
p1295
F350.0
sS'S2UB'
p1296
F65000.0
ssS'nerix_150930_1604.root'
p1297
(dp1298
S'S1UB'
p1299
F1000.0
sS'S1NB'
p1300
I25
sS'S2LB'
p1301
F30000.0
sS'S2NB'
p1302
I25
sS'S1LB'
p1303
F400.0
sS'S2UB'
p1304
F150000.0
ssS'nerix_150928_1257.root'
p1305
(dp1306
S'S1UB'
p1307
F340.0
sS'S1NB'
p1308
I25
sS'S2LB'
p1309
F20000.0
sS'S2NB'
p1310
I25
sS'S1LB'
p1311
F150.0
sS'S2UB'
p1312
F75000.0
ssS'nerix_160118_1558.root'
p1313
(dp1314
S'S1UB'
p1315
I1400
sS'S1NB'
p1316
I50
sS'S2LB'
p1317
I0
sS'S2NB'
p1318
I50
sS'S1LB'
p1319
I0
sS'S2UB'
p1320
F400000.0
ssS'nerix_160104_1502.root'
p1321
(dp1322
S'S1UB'
p1323
I3500
sS'S1NB'
p1324
I80
sS'S2LB'
p1325
I0
sS'S2NB'
p1326
I80
sS'S1LB'
p1327
I0
sS'S2UB'
p1328
F1100000.0
ssS'nerix_160112_1701.root'
p1329
(dp1330
S'S1UB'
p1331
I1400
sS'S1NB'
p1332
I50
sS'S2LB'
p1333
I0
sS'S2NB'
p1334
I50
sS'S1LB'
p1335
I0
sS'S2UB'
p1336
F400000.0
ssS'nerix_151229_1206.root'
p1337
(dp1338
S'S1UB'
p1339
I3500
sS'S1NB'
p1340
I80
sS'S2LB'
p1341
I0
sS'S2NB'
p1342
I80
sS'S1LB'
p1343
I0
sS'S2UB'
p1344
F1100000.0
ssS'nerix_160112_1551.root'
p1345
(dp1346
S'S1UB'
p1347
I1400
sS'S1NB'
p1348
I50
sS'S2LB'
p1349
I0
sS'S2NB'
p1350
I50
sS'S1LB'
p1351
I0
sS'S2UB'
p1352
F400000.0
ssS'nerix_160118_1436.root'
p1353
(dp1354
S'S1UB'
p1355
I3500
sS'S1NB'
p1356
I80
sS'S2LB'
p1357
I0
sS'S2NB'
p1358
I80
sS'S1LB'
p1359
I0
sS'S2UB'
p1360
F1100000.0
ssS'nerix_151209_1126.root'
p1361
(dp1362
S'S1UB'
p1363
F1200.0
sS'S1NB'
p1364
I35
sS'S2LB'
p1365
F50000.0
sS'S2NB'
p1366
I35
sS'S1LB'
p1367
F400.0
sS'S2UB'
p1368
F300000.0
ssS'nerix_151210_0930.root'
p1369
(dp1370
S'S1UB'
p1371
F3000.0
sS'S1NB'
p1372
I25
sS'S2LB'
p1373
F500000.0
sS'S2NB'
p1374
I25
sS'S1LB'
p1375
F1500.0
sS'S2UB'
p1376
F750000.0
ssS'nerix_151203_1438.root'
p1377
(dp1378
S'S1UB'
p1379
I3500
sS'S1NB'
p1380
I80
sS'S2LB'
p1381
I0
sS'S2NB'
p1382
I80
sS'S1LB'
p1383
I0
sS'S2UB'
p1384
F1100000.0
ssS'nerix_150914_1750.root'
p1385
(dp1386
S'S1UB'
p1387
F300.0
sS'S1NB'
p1388
I15
sS'S2LB'
p1389
F24000.0
sS'S2NB'
p1390
I15
sS'S1LB'
p1391
F120.0
sS'S2UB'
p1392
F50000.0
ssS'nerix_151209_1008.root'
p1393
(dp1394
S'S1UB'
p1395
F1200.0
sS'S1NB'
p1396
I25
sS'S2LB'
p1397
F60000.0
sS'S2NB'
p1398
I25
sS'S1LB'
p1399
F600.0
sS'S2UB'
p1400
F250000.0
ssS'nerix_160104_1342.root'
p1401
(dp1402
S'S1UB'
p1403
I3500
sS'S1NB'
p1404
I80
sS'S2LB'
p1405
I0
sS'S2NB'
p1406
I80
sS'S1LB'
p1407
I0
sS'S2UB'
p1408
F1100000.0
ssS'nerix_160111_1245.root'
p1409
(dp1410
S'S1UB'
p1411
I3500
sS'S1NB'
p1412
I80
sS'S2LB'
p1413
I0
sS'S2NB'
p1414
I80
sS'S1LB'
p1415
I0
sS'S2UB'
p1416
F1100000.0
ssS'nerix_151006_1316.root'
p1417
(dp1418
S'S1UB'
p1419
F450.0
sS'S1NB'
p1420
I25
sS'S2LB'
p1421
F5000.0
sS'S2NB'
p1422
I25
sS'S1LB'
p1423
F100.0
sS'S2UB'
p1424
F60000.0
ssS'nerix_151201_1306.root'
p1425
(dp1426
S'S1UB'
p1427
I3500
sS'S1NB'
p1428
I80
sS'S2LB'
p1429
I0
sS'S2NB'
p1430
I80
sS'S1LB'
p1431
I0
sS'S2UB'
p1432
F1100000.0
ssS'nerix_151110_0213.root'
p1433
(dp1434
S'S1UB'
p1435
I1400
sS'S1NB'
p1436
I50
sS'S2LB'
p1437
I0
sS'S2NB'
p1438
I50
sS'S1LB'
p1439
I0
sS'S2UB'
p1440
F400000.0
ssS'nerix_151002_1318.root'
p1441
(dp1442
S'S1UB'
p1443
F1400.0
sS'S1NB'
p1444
I25
sS'S2LB'
p1445
F70000.0
sS'S2NB'
p1446
I25
sS'S1LB'
p1447
F500.0
sS'S2UB'
p1448
F350000.0
ssS'nerix_151203_1221.root'
p1449
(dp1450
S'S1UB'
p1451
I3500
sS'S1NB'
p1452
I80
sS'S2LB'
p1453
I0
sS'S2NB'
p1454
I80
sS'S1LB'
p1455
I0
sS'S2UB'
p1456
F1100000.0
ssS'nerix_151214_1313.root'
p1457
(dp1458
S'S1UB'
p1459
I3500
sS'S1NB'
p1460
I80
sS'S2LB'
p1461
I0
sS'S2NB'
p1462
I80
sS'S1LB'
p1463
I0
sS'S2UB'
p1464
F1100000.0
ssS'nerix_150902_1620.root'
p1465
(dp1466
S'S1UB'
p1467
F500.0
sS'S1NB'
p1468
I25
sS'S2LB'
p1469
F22000.0
sS'S2NB'
p1470
I25
sS'S1LB'
p1471
F200.0
sS'S2UB'
p1472
F50000.0
ssS'nerix_160127_1502.root'
p1473
(dp1474
S'S1UB'
p1475
I3500
sS'S1NB'
p1476
I80
sS'S2LB'
p1477
I0
sS'S2NB'
p1478
I80
sS'S1LB'
p1479
I0
sS'S2UB'
p1480
F1100000.0
ssS'nerix_150914_1549.root'
p1481
(dp1482
S'S1UB'
p1483
F400.0
sS'S1NB'
p1484
I20
sS'S2LB'
p1485
F14000.0
sS'S2NB'
p1486
I20
sS'S1LB'
p1487
F120.0
sS'S2UB'
p1488
F36000.0
ssS'nerix_151223_1249.root'
p1489
(dp1490
S'S1UB'
p1491
I3500
sS'S1NB'
p1492
I80
sS'S2LB'
p1493
I0
sS'S2NB'
p1494
I80
sS'S1LB'
p1495
I0
sS'S2UB'
p1496
F1100000.0
ssS'nerix_151124_2303.root'
p1497
(dp1498
S'S1UB'
p1499
I1400
sS'S1NB'
p1500
I50
sS'S2LB'
p1501
I0
sS'S2NB'
p1502
I50
sS'S1LB'
p1503
I0
sS'S2UB'
p1504
F400000.0
ssS'nerix_160112_1326.root'
p1505
(dp1506
S'S1UB'
p1507
I3500
sS'S1NB'
p1508
I80
sS'S2LB'
p1509
I0
sS'S2NB'
p1510
I80
sS'S1LB'
p1511
I0
sS'S2UB'
p1512
F1100000.0
ssS'nerix_151029_1026.root'
p1513
(dp1514
S'S1UB'
p1515
F450.0
sS'S1NB'
p1516
I15
sS'S2LB'
p1517
F10000.0
sS'S2NB'
p1518
I15
sS'S1LB'
p1519
F100.0
sS'S2UB'
p1520
F50000.0
ssS'nerix_151222_1253.root'
p1521
(dp1522
S'S1UB'
p1523
I3500
sS'S1NB'
p1524
I80
sS'S2LB'
p1525
I0
sS'S2NB'
p1526
I80
sS'S1LB'
p1527
I0
sS'S2UB'
p1528
F1100000.0
ssS'nerix_160126_0946.root'
p1529
(dp1530
S'S1UB'
p1531
I1400
sS'S1NB'
p1532
I50
sS'S2LB'
p1533
I0
sS'S2NB'
p1534
I50
sS'S1LB'
p1535
I0
sS'S2UB'
p1536
F400000.0
ssS'nerix_151110_0650.root'
p1537
(dp1538
S'S1UB'
p1539
I1400
sS'S1NB'
p1540
I50
sS'S2LB'
p1541
I0
sS'S2NB'
p1542
I50
sS'S1LB'
p1543
I0
sS'S2UB'
p1544
F400000.0
ssS'nerix_150928_1516.root'
p1545
(dp1546
S'S1UB'
p1547
F380.0
sS'S1NB'
p1548
I25
sS'S2LB'
p1549
F20000.0
sS'S2NB'
p1550
I25
sS'S1LB'
p1551
F180.0
sS'S2UB'
p1552
F70000.0
ssS'nerix_151028_1140.root'
p1553
(dp1554
S'S1UB'
p1555
F1700.0
sS'S1NB'
p1556
I25
sS'S2LB'
p1557
F10000.0
sS'S2NB'
p1558
I25
sS'S1LB'
p1559
F500.0
sS'S2UB'
p1560
F80000.0
ssS'nerix_151207_1514.root'
p1561
(dp1562
S'S1UB'
p1563
I3500
sS'S1NB'
p1564
I80
sS'S2LB'
p1565
I0
sS'S2NB'
p1566
I80
sS'S1LB'
p1567
I0
sS'S2UB'
p1568
F1100000.0
ssS'nerix_160125_1327.root'
p1569
(dp1570
S'S1UB'
p1571
I3500
sS'S1NB'
p1572
I80
sS'S2LB'
p1573
I0
sS'S2NB'
p1574
I80
sS'S1LB'
p1575
I0
sS'S2UB'
p1576
F1100000.0
ssS'nerix_151203_1156.root'
p1577
(dp1578
S'S1UB'
p1579
I3500
sS'S1NB'
p1580
I80
sS'S2LB'
p1581
I0
sS'S2NB'
p1582
I80
sS'S1LB'
p1583
I0
sS'S2UB'
p1584
F1100000.0
ssS'nerix_151223_1317.root'
p1585
(dp1586
S'S1UB'
p1587
I3500
sS'S1NB'
p1588
I80
sS'S2LB'
p1589
I0
sS'S2NB'
p1590
I80
sS'S1LB'
p1591
I0
sS'S2UB'
p1592
F1100000.0
ssS'nerix_150902_1328.root'
p1593
(dp1594
S'S1UB'
p1595
F280.0
sS'S1NB'
p1596
I10
sS'S2LB'
p1597
F20000.0
sS'S2NB'
p1598
I10
sS'S1LB'
p1599
F150.0
sS'S2UB'
p1600
F35000.0
ssS'nerix_151125_0929.root'
p1601
(dp1602
S'S1UB'
p1603
I1400
sS'S1NB'
p1604
I50
sS'S2LB'
p1605
I0
sS'S2NB'
p1606
I50
sS'S1LB'
p1607
I0
sS'S2UB'
p1608
F400000.0
ssS'nerix_151119_1546.root'
p1609
(dp1610
S'S1UB'
p1611
I3500
sS'S1NB'
p1612
I80
sS'S2LB'
p1613
I0
sS'S2NB'
p1614
I80
sS'S1LB'
p1615
I0
sS'S2UB'
p1616
F1100000.0
ssS'nerix_151123_1522.root'
p1617
(dp1618
S'S1UB'
p1619
F850.0
sS'S1NB'
p1620
I10
sS'S2LB'
p1621
F150000.0
sS'S2NB'
p1622
I10
sS'S1LB'
p1623
F350.0
sS'S2UB'
p1624
F280000.0
ssS'nerix_151004_1458.root'
p1625
(dp1626
S'S1UB'
p1627
F450.0
sS'S1NB'
p1628
I25
sS'S2LB'
p1629
I0
sS'S2NB'
p1630
I25
sS'S1LB'
p1631
F150.0
sS'S2UB'
p1632
F50000.0
ssS'nerix_151229_1120.root'
p1633
(dp1634
S'S1UB'
p1635
I3500
sS'S1NB'
p1636
I80
sS'S2LB'
p1637
I0
sS'S2NB'
p1638
I80
sS'S1LB'
p1639
I0
sS'S2UB'
p1640
F1100000.0
ssS'nerix_151026_1342.root'
p1641
(dp1642
S'S1UB'
p1643
F1200.0
sS'S1NB'
p1644
I25
sS'S2LB'
p1645
F140000.0
sS'S2NB'
p1646
I25
sS'S1LB'
p1647
F500.0
sS'S2UB'
p1648
F300000.0
ssS'nerix_151117_1237.root'
p1649
(dp1650
S'S1UB'
p1651
F450.0
sS'S1NB'
p1652
I15
sS'S2LB'
p1653
I0
sS'S2NB'
p1654
I15
sS'S1LB'
p1655
F100.0
sS'S2UB'
p1656
F40000.0
ssS'nerix_151006_1404.root'
p1657
(dp1658
S'S1UB'
p1659
F450.0
sS'S1NB'
p1660
I25
sS'S2LB'
p1661
F5000.0
sS'S2NB'
p1662
I25
sS'S1LB'
p1663
F150.0
sS'S2UB'
p1664
F50000.0
ssS'nerix_151214_1213.root'
p1665
(dp1666
S'S1UB'
p1667
I3500
sS'S1NB'
p1668
I80
sS'S2LB'
p1669
I0
sS'S2NB'
p1670
I80
sS'S1LB'
p1671
I0
sS'S2UB'
p1672
F1100000.0
ssS'nerix_150916_1201.root'
p1673
(dp1674
S'S1UB'
p1675
F400.0
sS'S1NB'
p1676
I25
sS'S2LB'
p1677
F10000.0
sS'S2NB'
p1678
I25
sS'S1LB'
p1679
F180.0
sS'S2UB'
p1680
F34000.0
ssS'nerix_160125_1353.root'
p1681
(dp1682
S'S1UB'
p1683
I3500
sS'S1NB'
p1684
I80
sS'S2LB'
p1685
I0
sS'S2NB'
p1686
I80
sS'S1LB'
p1687
I0
sS'S2UB'
p1688
F1100000.0
ssS'nerix_151026_1506.root'
p1689
(dp1690
S'S1UB'
p1691
F1200.0
sS'S1NB'
p1692
I25
sS'S2LB'
p1693
F150000.0
sS'S2NB'
p1694
I25
sS'S1LB'
p1695
F400.0
sS'S2UB'
p1696
F350000.0
ssS'nerix_151216_1018.root'
p1697
(dp1698
S'S1UB'
p1699
I1400
sS'S1NB'
p1700
I50
sS'S2LB'
p1701
I0
sS'S2NB'
p1702
I50
sS'S1LB'
p1703
I0
sS'S2UB'
p1704
F400000.0
ssS'nerix_160104_1528.root'
p1705
(dp1706
S'S1UB'
p1707
I3500
sS'S1NB'
p1708
I80
sS'S2LB'
p1709
I0
sS'S2NB'
p1710
I80
sS'S1LB'
p1711
I0
sS'S2UB'
p1712
F1100000.0
ssS'nerix_151215_1524.root'
p1713
(dp1714
S'S1UB'
p1715
F3000.0
sS'S1NB'
p1716
I50
sS'S2LB'
p1717
F500000.0
sS'S2NB'
p1718
I50
sS'S1LB'
p1719
F1700.0
sS'S2UB'
p1720
F750000.0
ssS'nerix_151006_1703.root'
p1721
(dp1722
S'S1UB'
p1723
F400.0
sS'S1NB'
p1724
I25
sS'S2LB'
p1725
F18000.0
sS'S2NB'
p1726
I25
sS'S1LB'
p1727
F180.0
sS'S2UB'
p1728
F60000.0
ssS'nerix_151102_1355.root'
p1729
(dp1730
S'S1UB'
p1731
F1100.0
sS'S1NB'
p1732
I15
sS'S2LB'
p1733
F150000.0
sS'S2NB'
p1734
I15
sS'S1LB'
p1735
F500.0
sS'S2UB'
p1736
F300000.0
ssS'nerix_151201_1327.root'
p1737
(dp1738
S'S1UB'
p1739
I3500
sS'S1NB'
p1740
I80
sS'S2LB'
p1741
I0
sS'S2NB'
p1742
I80
sS'S1LB'
p1743
I0
sS'S2UB'
p1744
F1100000.0
ssS'nerix_151203_1411.root'
p1745
(dp1746
S'S1UB'
p1747
I3500
sS'S1NB'
p1748
I80
sS'S2LB'
p1749
I0
sS'S2NB'
p1750
I80
sS'S1LB'
p1751
I0
sS'S2UB'
p1752
F1100000.0
ssS'nerix_151214_1244.root'
p1753
(dp1754
S'S1UB'
p1755
I3500
sS'S1NB'
p1756
I80
sS'S2LB'
p1757
I0
sS'S2NB'
p1758
I80
sS'S1LB'
p1759
I0
sS'S2UB'
p1760
F1100000.0
ssS'nerix_150930_1346.root'
p1761
(dp1762
S'S1UB'
p1763
F750.0
sS'S1NB'
p1764
I25
sS'S2LB'
p1765
F50000.0
sS'S2NB'
p1766
I25
sS'S1LB'
p1767
F300.0
sS'S2UB'
p1768
F190000.0
ssS'nerix_160118_1214.root'
p1769
(dp1770
S'S1UB'
p1771
I3500
sS'S1NB'
p1772
I80
sS'S2LB'
p1773
I0
sS'S2NB'
p1774
I80
sS'S1LB'
p1775
I0
sS'S2UB'
p1776
F1100000.0
ssS'nerix_150914_1647.root'
p1777
(dp1778
S'S1UB'
p1779
F400.0
sS'S1NB'
p1780
I15
sS'S2LB'
p1781
F15000.0
sS'S2NB'
p1782
I15
sS'S1LB'
p1783
F120.0
sS'S2UB'
p1784
F43000.0
ssS'nerix_151019_1426.root'
p1785
(dp1786
S'S1UB'
p1787
F1300.0
sS'S1NB'
p1788
I25
sS'S2LB'
p1789
F100000.0
sS'S2NB'
p1790
I25
sS'S1LB'
p1791
F800.0
sS'S2UB'
p1792
F280000.0
ssS'nerix_151026_1253.root'
p1793
(dp1794
S'S1UB'
p1795
F1250.0
sS'S1NB'
p1796
I25
sS'S2LB'
p1797
F100000.0
sS'S2NB'
p1798
I25
sS'S1LB'
p1799
F600.0
sS'S2UB'
p1800
F300000.0
ssS'nerix_151004_1427.root'
p1801
(dp1802
S'S1UB'
p1803
F500.0
sS'S1NB'
p1804
I25
sS'S2LB'
p1805
F10000.0
sS'S2NB'
p1806
I25
sS'S1LB'
p1807
F150.0
sS'S2UB'
p1808
F50000.0
ssS'nerix_151006_1637.root'
p1809
(dp1810
S'S1UB'
p1811
F400.0
sS'S1NB'
p1812
I25
sS'S2LB'
p1813
I0
sS'S2NB'
p1814
I25
sS'S1LB'
p1815
F200.0
sS'S2UB'
p1816
F70000.0
ssS'nerix_150902_1559.root'
p1817
(dp1818
S'S1UB'
p1819
F360.0
sS'S1NB'
p1820
I25
sS'S2LB'
p1821
F16000.0
sS'S2NB'
p1822
I25
sS'S1LB'
p1823
F140.0
sS'S2UB'
p1824
F36000.0
ssS'nerix_151004_1525.root'
p1825
(dp1826
S'S1UB'
p1827
F400.0
sS'S1NB'
p1828
I25
sS'S2LB'
p1829
F10000.0
sS'S2NB'
p1830
I25
sS'S1LB'
p1831
F150.0
sS'S2UB'
p1832
F60000.0
ssS'nerix_160118_1502.root'
p1833
(dp1834
S'S1UB'
p1835
I3500
sS'S1NB'
p1836
I80
sS'S2LB'
p1837
I0
sS'S2NB'
p1838
I80
sS'S1LB'
p1839
I0
sS'S2UB'
p1840
F1100000.0
ssS'nerix_150916_1342.root'
p1841
(dp1842
S'S1UB'
p1843
F400.0
sS'S1NB'
p1844
I25
sS'S2LB'
p1845
F14000.0
sS'S2NB'
p1846
I25
sS'S1LB'
p1847
F140.0
sS'S2UB'
p1848
F36000.0
ssS'nerix_151210_1130.root'
p1849
(dp1850
S'S1UB'
p1851
F2300.0
sS'S1NB'
p1852
I25
sS'S2LB'
p1853
F300000.0
sS'S2NB'
p1854
I25
sS'S1LB'
p1855
F1100.0
sS'S2UB'
p1856
F550000.0
ssS'nerix_150928_1622.root'
p1857
(dp1858
S'S1UB'
p1859
F360.0
sS'S1NB'
p1860
I25
sS'S2LB'
p1861
F20000.0
sS'S2NB'
p1862
I25
sS'S1LB'
p1863
F120.0
sS'S2UB'
p1864
F80000.0
ssS'nerix_151002_1143.root'
p1865
(dp1866
S'S1UB'
p1867
F900.0
sS'S1NB'
p1868
I25
sS'S2LB'
p1869
F35000.0
sS'S2NB'
p1870
I25
sS'S1LB'
p1871
F350.0
sS'S2UB'
p1872
F250000.0
ssS'nerix_160104_1303.root'
p1873
(dp1874
S'S1UB'
p1875
I3500
sS'S1NB'
p1876
I80
sS'S2LB'
p1877
I0
sS'S2NB'
p1878
I80
sS'S1LB'
p1879
I0
sS'S2UB'
p1880
F1100000.0
ssS'nerix_151123_1445.root'
p1881
(dp1882
S'S1UB'
p1883
F900.0
sS'S1NB'
p1884
I10
sS'S2LB'
p1885
F100000.0
sS'S2NB'
p1886
I10
sS'S1LB'
p1887
F400.0
sS'S2UB'
p1888
F300000.0
ssS'nerix_150902_1228.root'
p1889
(dp1890
S'S1UB'
p1891
F280.0
sS'S1NB'
p1892
I25
sS'S2LB'
p1893
F10000.0
sS'S2NB'
p1894
I25
sS'S1LB'
p1895
F70.0
sS'S2UB'
p1896
F25000.0
ssS'nerix_151203_1138.root'
p1897
(dp1898
S'S1UB'
p1899
I3500
sS'S1NB'
p1900
I80
sS'S2LB'
p1901
I0
sS'S2NB'
p1902
I80
sS'S1LB'
p1903
I0
sS'S2UB'
p1904
F1100000.0
ssS'nerix_151002_1044.root'
p1905
(dp1906
S'S1UB'
p1907
F900.0
sS'S1NB'
p1908
I25
sS'S2LB'
p1909
F40000.0
sS'S2NB'
p1910
I25
sS'S1LB'
p1911
F300.0
sS'S2UB'
p1912
F250000.0
ssS'nerix_151208_1400.root'
p1913
(dp1914
S'S1UB'
p1915
F400.0
sS'S1NB'
p1916
I25
sS'S2LB'
p1917
I0
sS'S2NB'
p1918
I25
sS'S1LB'
p1919
F50.0
sS'S2UB'
p1920
F60000.0
ssS'nerix_150914_1719.root'
p1921
(dp1922
S'S1UB'
p1923
F400.0
sS'S1NB'
p1924
I15
sS'S2LB'
p1925
F20000.0
sS'S2NB'
p1926
I15
sS'S1LB'
p1927
F120.0
sS'S2UB'
p1928
F45000.0
ssS'nerix_160112_2151.root'
p1929
(dp1930
S'S1UB'
p1931
I1400
sS'S1NB'
p1932
I50
sS'S2LB'
p1933
I0
sS'S2NB'
p1934
I50
sS'S1LB'
p1935
I0
sS'S2UB'
p1936
F400000.0
ssS'nerix_151005_1605.root'
p1937
(dp1938
S'S1UB'
p1939
F800.0
sS'S1NB'
p1940
I25
sS'S2LB'
p1941
F70000.0
sS'S2NB'
p1942
I25
sS'S1LB'
p1943
F300.0
sS'S2UB'
p1944
F280000.0
ssS'nerix_151222_1200.root'
p1945
(dp1946
S'S1UB'
p1947
I3500
sS'S1NB'
p1948
I80
sS'S2LB'
p1949
I0
sS'S2NB'
p1950
I80
sS'S1LB'
p1951
I0
sS'S2UB'
p1952
F1100000.0
ss.