(dp0
S'na_res'
p1
(dp2
S'm_one_sig'
p3
cnumpy.core.multiarray
scalar
p4
(cnumpy
dtype
p5
(S'f8'
p6
I0
I1
tp7
Rp8
(I3
S'<'
p9
NNNI-1
I-1
I0
tp10
bS' \x01\x07\x8dE\xae\xd9?'
p11
tp12
Rp13
sS'median'
p14
g4
(g8
S'\xbe\xcd\xb4\xaaLg+@'
p15
tp16
Rp17
sS'p_one_sig'
p18
g4
(g8
S'\x00\x9c0+h\xd2\xd9?'
p19
tp20
Rp21
ssS'g1'
p22
(dp23
g3
g4
(g8
S"\x00J'\x05\x83n>?"
p24
tp25
Rp26
sg14
g4
(g8
S'\xe2\xd6\x16\xf5n\xca\xc0?'
p27
tp28
Rp29
sg18
g4
(g8
S'\x00~HE \xf0>?'
p30
tp31
Rp32
ssS'cs_res'
p33
(dp34
g3
g4
(g8
S' \x01\x07\x8dE\xae\xd9?'
p35
tp36
Rp37
sg14
g4
(g8
S'\xbe\xcd\xb4\xaaLg+@'
p38
tp39
Rp40
sg18
g4
(g8
S'\x00\x9c0+h\xd2\xd9?'
p41
tp42
Rp43
ssS'eta'
p44
(dp45
g3
g4
(g8
S'\x00\xb2U\xb4\xaf\x17\x94?'
p46
tp47
Rp48
sg14
g4
(g8
S'\x88u(tKF\xef?'
p49
tp50
Rp51
sg18
g4
(g8
S'@\xa5\xe4\xbfJI\x8e?'
p52
tp53
Rp54
ssS'w'
p55
(dp56
g3
g4
(g8
S' \x01\x07\x8dE\xae\xd9?'
p57
tp58
Rp59
sg14
g4
(g8
S'\xbe\xcd\xb4\xaaLg+@'
p60
tp61
Rp62
sg18
g4
(g8
S'\x00\x9c0+h\xd2\xd9?'
p63
tp64
Rp65
ssS'gas_gain'
p66
(dp67
g3
g4
(g8
S'@g\xd5\xf3\xaf|\xd4?'
p68
tp69
Rp70
sg14
g4
(g8
S'v>v\x1d\x17x5@'
p71
tp72
Rp73
sg18
g4
(g8
S'\xc0PKL<\xda\xdb?'
p74
tp75
Rp76
ss.