ccopy_reg
_reconstructor
p0
(csklearn.preprocessing.data
StandardScaler
p1
cdill.dill
_load_type
p2
(S'ObjectType'
p3
tp4
Rp5
Ntp6
Rp7
(dp8
S'std_'
p9
cnumpy.core.multiarray
_reconstruct
p10
(cnumpy
ndarray
p11
(I0
tp12
S'b'
p13
tp14
Rp15
(I1
(I5
tp16
cnumpy
dtype
p17
(S'f8'
p18
I0
I1
tp19
Rp20
(I3
S'<'
p21
NNNI-1
I-1
I0
tp22
bI00
S'\x9dH\xfeQF\xf6*A\xb9V\xe9\x8c\xde\xae\xbf?\x1f\xd6+\xf0\xb5\xbc\x92?yR\xa7\x100\xc8&?P\xeb\x8a\x15\x00,\x8a>'
p23
tp24
bsS'copy'
p25
I01
sS'with_mean'
p26
I01
sS'with_std'
p27
I01
sS'mean_'
p28
g10
(g11
(I0
tp29
g13
tp30
Rp31
(I1
(I5
tp32
g20
I00
S'\xdb\xe8\x10eyf\xd7Ah6]\x92\xf3\xf7"@\x1c\xe1t@9\xc5\xe5?\x93\x06\r\x8a..`\xbf\xac\xb2}\x9e\x1b\xe1\xc8>'
p33
tp34
bsb.