ccopy_reg
_reconstructor
p0
(csklearn.preprocessing.data
StandardScaler
p1
cdill.dill
_load_type
p2
(S'ObjectType'
p3
tp4
Rp5
Ntp6
Rp7
(dp8
S'std_'
p9
cnumpy.core.multiarray
_reconstruct
p10
(cnumpy
ndarray
p11
(I0
tp12
S'b'
p13
tp14
Rp15
(I1
(I5
tp16
cnumpy
dtype
p17
(S'f8'
p18
I0
I1
tp19
Rp20
(I3
S'<'
p21
NNNI-1
I-1
I0
tp22
bI00
S"\xe5\x8d\x96\x9e\xc4/,A\x01z\x078\x84\xd3\xba?N\x00\xe8\x80\xf1\xc3\x9a?\xe2_;\x08}('?^g\xabV\x8f|\x88>"
p23
tp24
bsS'copy'
p25
I01
sS'with_mean'
p26
I01
sS'with_std'
p27
I01
sS'mean_'
p28
g10
(g11
(I0
tp29
g13
tp30
Rp31
(I1
(I5
tp32
g20
I00
S'@r\x01@\xcfM\xd7A\'\xb4\t\x8e\x13\x90"@\xe1\xf5j\x9f\x1a\x86\xe9?\xbd\xde`\xbd\x82\x93d\xbf\t\x8e/]\xd2\xf8\xcc>'
p33
tp34
bsb.