(dp0
S'na_res'
p1
(dp2
S'm_one_sig'
p3
cnumpy.core.multiarray
scalar
p4
(cnumpy
dtype
p5
(S'f8'
p6
I0
I1
tp7
Rp8
(I3
S'<'
p9
NNNI-1
I-1
I0
tp10
bS'@\\6y\x81\x8b\xd9?'
p11
tp12
Rp13
sS'median'
p14
g4
(g8
S'[<\x10~Of+@'
p15
tp16
Rp17
sS'p_one_sig'
p18
g4
(g8
S'\xc05"\x16\xa4\xad\xd9?'
p19
tp20
Rp21
ssS'g1'
p22
(dp23
g3
g4
(g8
S'\x00\x8b\xe1\xd5\xd8\xe6:?'
p24
tp25
Rp26
sg14
g4
(g8
S'\xa5\xa8\xd8\xf6|z\xbc?'
p27
tp28
Rp29
sg18
g4
(g8
S'\x00\x15\xfb\xc8\xcd\xc4;?'
p30
tp31
Rp32
ssS'cs_res'
p33
(dp34
g3
g4
(g8
S'@\\6y\x81\x8b\xd9?'
p35
tp36
Rp37
sg14
g4
(g8
S'[<\x10~Of+@'
p38
tp39
Rp40
sg18
g4
(g8
S'\xc05"\x16\xa4\xad\xd9?'
p41
tp42
Rp43
ssS'eta'
p44
(dp45
g3
g4
(g8
S'\x80\xc9\xe28\x9a\xe2\x95?'
p46
tp47
Rp48
sg14
g4
(g8
S'l\xe3\xb2\x7f=\xe2\xeb?'
p49
tp50
Rp51
sg18
g4
(g8
S'\xe0\xebe!\xcd\xbc\x97?'
p52
tp53
Rp54
ssS'w'
p55
(dp56
g3
g4
(g8
S'@\\6y\x81\x8b\xd9?'
p57
tp58
Rp59
sg14
g4
(g8
S'[<\x10~Of+@'
p60
tp61
Rp62
sg18
g4
(g8
S'\xc05"\x16\xa4\xad\xd9?'
p63
tp64
Rp65
ssS'gas_gain'
p66
(dp67
g3
g4
(g8
S'@D]\xb6\xa0|\xe1?'
p68
tp69
Rp70
sg14
g4
(g8
S'\x9b\xaf\xc7F\xa4G5@'
p71
tp72
Rp73
sg18
g4
(g8
S'`\x12\x86\xec\x8e\t\xe1?'
p74
tp75
Rp76
ss.