(dp0
S'na_res'
p1
(dp2
S'm_one_sig'
p3
cnumpy.core.multiarray
scalar
p4
(cnumpy
dtype
p5
(S'f8'
p6
I0
I1
tp7
Rp8
(I3
S'<'
p9
NNNI-1
I-1
I0
tp10
bS'\xe0!\xc7cZ\xc1\xd9?'
p11
tp12
Rp13
sS'median'
p14
g4
(g8
S'{\xbb?n\x88f+@'
p15
tp16
Rp17
sS'p_one_sig'
p18
g4
(g8
S'\xe0\x851?\xa0+\xd9?'
p19
tp20
Rp21
ssS'g1'
p22
(dp23
g3
g4
(g8
S'\x00$\x1emp\x82;?'
p24
tp25
Rp26
sg14
g4
(g8
S' \xf7\xe0\x15\xecC\xc0?'
p27
tp28
Rp29
sg18
g4
(g8
S'\x00\xc0\xe1W\xcd\x04<?'
p30
tp31
Rp32
ssS'cs_res'
p33
(dp34
g3
g4
(g8
S'\xe0!\xc7cZ\xc1\xd9?'
p35
tp36
Rp37
sg14
g4
(g8
S'{\xbb?n\x88f+@'
p38
tp39
Rp40
sg18
g4
(g8
S'\xe0\x851?\xa0+\xd9?'
p41
tp42
Rp43
ssS'eta'
p44
(dp45
g3
g4
(g8
S'\xa0D\xef\xbe;\x06\x97?'
p46
tp47
Rp48
sg14
g4
(g8
S'\xa7\xaf\xa7O)\xba\xee?'
p49
tp50
Rp51
sg18
g4
(g8
S'\xe0\xf1J\xbb\x88\xf4\x95?'
p52
tp53
Rp54
ssS'w'
p55
(dp56
g3
g4
(g8
S'\xe0!\xc7cZ\xc1\xd9?'
p57
tp58
Rp59
sg14
g4
(g8
S'{\xbb?n\x88f+@'
p60
tp61
Rp62
sg18
g4
(g8
S'\xe0\x851?\xa0+\xd9?'
p63
tp64
Rp65
ssS'gas_gain'
p66
(dp67
g3
g4
(g8
S'\xc0\xe1\x1b\xa3B\x99\xdd?'
p68
tp69
Rp70
sg14
g4
(g8
S':<\xb5\xa6PR5@'
p71
tp72
Rp73
sg18
g4
(g8
S'\xa0(\xb5Y\xb8L\xe0?'
p74
tp75
Rp76
ss.