(dp0
S'na_res'
p1
(dp2
S'm_one_sig'
p3
cnumpy.core.multiarray
scalar
p4
(cnumpy
dtype
p5
(S'f8'
p6
I0
I1
tp7
Rp8
(I3
S'<'
p9
NNNI-1
I-1
I0
tp10
bS' Q3\xf9\xc5\x9a\xd9?'
p11
tp12
Rp13
sS'median'
p14
g4
(g8
S'b\x8c\xa7#\xfee+@'
p15
tp16
Rp17
sS'p_one_sig'
p18
g4
(g8
S'@\x812\xa15\\\xd9?'
p19
tp20
Rp21
ssS'g1'
p22
(dp23
g3
g4
(g8
S'\x00R6\x9e\xca\xba<?'
p24
tp25
Rp26
sg14
g4
(g8
S'\r\xad\x99\x9a\xf8\x94\xc0?'
p27
tp28
Rp29
sg18
g4
(g8
S'\x00\x8a\xba\x02\x8b\xbb=?'
p30
tp31
Rp32
ssS'cs_res'
p33
(dp34
g3
g4
(g8
S' Q3\xf9\xc5\x9a\xd9?'
p35
tp36
Rp37
sg14
g4
(g8
S'b\x8c\xa7#\xfee+@'
p38
tp39
Rp40
sg18
g4
(g8
S'@\x812\xa15\\\xd9?'
p41
tp42
Rp43
ssS'eta'
p44
(dp45
g3
g4
(g8
S' $=\\\xe9R\x96?'
p46
tp47
Rp48
sg14
g4
(g8
S'\xa1\x0bh\xe5\xd0\xff\xee?'
p49
tp50
Rp51
sg18
g4
(g8
S'`Q\xcf\x8f\xb8~\x93?'
p52
tp53
Rp54
ssS'w'
p55
(dp56
g3
g4
(g8
S' Q3\xf9\xc5\x9a\xd9?'
p57
tp58
Rp59
sg14
g4
(g8
S'b\x8c\xa7#\xfee+@'
p60
tp61
Rp62
sg18
g4
(g8
S'@\x812\xa15\\\xd9?'
p63
tp64
Rp65
ssS'gas_gain'
p66
(dp67
g3
g4
(g8
S'@\x1e\xed\x9f\x80~\xda?'
p68
tp69
Rp70
sg14
g4
(g8
S'\x96Fe\xde\x1d_5@'
p71
tp72
Rp73
sg18
g4
(g8
S'\x80\xb8o\xcc\xeef\xdf?'
p74
tp75
Rp76
ss.