(dp0
S'na_res'
p1
(dp2
S'm_one_sig'
p3
cnumpy.core.multiarray
scalar
p4
(cnumpy
dtype
p5
(S'f8'
p6
I0
I1
tp7
Rp8
(I3
S'<'
p9
NNNI-1
I-1
I0
tp10
bS'\x80\xe4m\xecY\xbe\xc9?'
p11
tp12
Rp13
sS'median'
p14
g4
(g8
S'\t&\x97#Lk+@'
p15
tp16
Rp17
sS'p_one_sig'
p18
g4
(g8
S'@Zs\xf2S>\xc9?'
p19
tp20
Rp21
ssS'g1'
p22
(dp23
g3
g4
(g8
S'@ .\xa8\xee\x9c^?'
p24
tp25
Rp26
sg14
g4
(g8
S's\x17\tVj\xdb\xbf?'
p27
tp28
Rp29
sg18
g4
(g8
S'@\xdd\xd8\xf6\x05S^?'
p30
tp31
Rp32
ssS'cs_res'
p33
(dp34
g3
g4
(g8
S'\x80\xe4m\xecY\xbe\xc9?'
p35
tp36
Rp37
sg14
g4
(g8
S'\t&\x97#Lk+@'
p38
tp39
Rp40
sg18
g4
(g8
S'@Zs\xf2S>\xc9?'
p41
tp42
Rp43
ssS'eta'
p44
(dp45
g3
g4
(g8
S'\xa0V\xf6\xc5\x013\x99?'
p46
tp47
Rp48
sg14
g4
(g8
S'\t\xccp0\x1a\xb4\xec?'
p49
tp50
Rp51
sg18
g4
(g8
S'`o\x87\xcd\x12\xa6\x9a?'
p52
tp53
Rp54
ssS'w'
p55
(dp56
g3
g4
(g8
S'\x80\xe4m\xecY\xbe\xc9?'
p57
tp58
Rp59
sg14
g4
(g8
S'\t&\x97#Lk+@'
p60
tp61
Rp62
sg18
g4
(g8
S'@Zs\xf2S>\xc9?'
p63
tp64
Rp65
ssS'gas_gain'
p66
(dp67
g3
g4
(g8
S'@\xebHY\xa3\x00\xe2?'
p68
tp69
Rp70
sg14
g4
(g8
S'\xdc:\xb0<\xf6\xe76@'
p71
tp72
Rp73
sg18
g4
(g8
S' n|le\xc9\xe1?'
p74
tp75
Rp76
ss.