(dp0
S'cs137'
p1
(dp2
F1.054
(dp3
S's2_mean_unc'
p4
F1032.5621542323497
sS's2_mean_value'
p5
F570442.4417931996
sS's1_mean_unc'
p6
F5.255043027192187
sS's1_mean_value'
p7
F2068.3061360754405
ssF2.356
(dp8
g4
F986.91259189212
sg5
F598741.1767180715
sg6
F4.5196582466281825
sg7
F1821.578438018324
ssF0.345
(dp9
g4
F1129.3804285721271
sg5
F529960.035054171
sg6
F6.515589738690778
sg7
F2403.3887931231066
sssS'na22'
p10
(dp11
F1.054
(dp12
g4
F1056.8091862174042
sg5
F424270.31335952145
sg6
F5.361739752794847
sg7
F1638.503868682564
ssF2.356
(dp13
g4
F1043.8687382352655
sg5
F452309.5965422187
sg6
F5.013992791636042
sg7
F1439.245528147656
ssF0.345
(dp14
g4
F1189.4134039772616
sg5
F379749.057622371
sg6
F6.66413386575698
sg7
F1939.5777897779662
sss.