ccopy_reg
_reconstructor
p0
(csklearn.preprocessing.data
StandardScaler
p1
cdill.dill
_load_type
p2
(S'ObjectType'
p3
tp4
Rp5
Ntp6
Rp7
(dp8
S'std_'
p9
cnumpy.core.multiarray
_reconstruct
p10
(cnumpy
ndarray
p11
(I0
tp12
S'b'
p13
tp14
Rp15
(I1
(I5
tp16
cnumpy
dtype
p17
(S'f8'
p18
I0
I1
tp19
Rp20
(I3
S'<'
p21
NNNI-1
I-1
I0
tp22
bI00
S'\xa3z\x8d\xdf\xa6Q,A\xedF\xd7\x89\xdb\xe9\xae?\xacB\x95\xd8g\x8b\x91?\xafd\x95\x1c\xcd\x8a\x1a?e\x0ey+\xc7K{>'
p23
tp24
bsS'copy'
p25
I01
sS'with_mean'
p26
I01
sS'with_std'
p27
I01
sS'mean_'
p28
g10
(g11
(I0
tp29
g13
tp30
Rp31
(I1
(I5
tp32
g20
I00
S'/\xb8\xf6\xfa\xdb|\xd7Aw\x00\x87#<\x16"@I\x08\x9e\x92""\xef?Lq\xba(\xb8\xb3j\xbf\rC5M?@\xd1>'
p33
tp34
bsb.