ccopy_reg
_reconstructor
p0
(csklearn.preprocessing.data
StandardScaler
p1
cdill.dill
_load_type
p2
(S'ObjectType'
p3
tp4
Rp5
Ntp6
Rp7
(dp8
S'std_'
p9
cnumpy.core.multiarray
_reconstruct
p10
(cnumpy
ndarray
p11
(I0
tp12
S'b'
p13
tp14
Rp15
(I1
(I5
tp16
cnumpy
dtype
p17
(S'f8'
p18
I0
I1
tp19
Rp20
(I3
S'<'
p21
NNNI-1
I-1
I0
tp22
bI00
S"(i\xd3Sz\xcf)A'\xceBE\xb4}\xbf?\x0c\x81\xaa\x19q&\x92?\x8e\xa2\xf0\xbc\xf7=%?`\xd5\xd1n\xf8\xfe\x88>"
p23
tp24
bsS'copy'
p25
I01
sS'with_mean'
p26
I01
sS'with_std'
p27
I01
sS'mean_'
p28
g10
(g11
(I0
tp29
g13
tp30
Rp31
(I1
(I5
tp32
g20
I00
S'\xc8\xaa\xb7\x84(\xc1\xd6A\x0c:\x8b\xb4H\r#@T?\xfak\xb7G\xe9?\xf3\xfe\x97\xc9\xf1ob\xbf\x18P\x83.\xb0T\xca>'
p33
tp34
bsb.